(lp0
(lp1
F0.0
aF25.602
aS'B3c'
p2
aF0.006
aF0.0
aF0.0
aF71.5
aF0.2769
aa(lp3
F0.0
aF9.795
aS'B3c'
p4
aF0.006
aF0.0
aF0.0
aF71.5
aF1.3841999999999999
aa(lp5
F0.0
aF4.447
aS'B3c'
p6
aF0.006
aF0.0
aF0.0
aF71.5
aF2.7600000000000002
aa(lp7
F8.891
aF4.126
aS'B3c'
p8
aF0.006
aF0.0
aF0.0
aF71.5
aF5.5371
aa(lp9
F34.522
aF4.206
aS'B3c'
p10
aF0.006
aF0.0
aF0.0
aF71.5
aF11.0739
aa(lp11
F0.0
aF70.363
aS'B3c'
p12
aF0.006
aF0.0497
aF0.0601
aF71.5
aF0.2769
aa(lp13
F0.0
aF59.693
aS'B3c'
p14
aF0.006
aF0.0497
aF0.0601
aF71.5
aF1.3841999999999999
aa(lp15
F0.0
aF47.491
aS'B3c'
p16
aF0.006
aF0.0497
aF0.0601
aF71.5
aF2.7600000000000002
aa(lp17
F0.0
aF26.287
aS'B3c'
p18
aF0.006
aF0.0497
aF0.0601
aF71.5
aF5.5371
aa(lp19
F21.111
aF19.756
aS'B3c'
p20
aF0.006
aF0.0497
aF0.0601
aF71.5
aF11.0739
aa(lp21
F0.0
aF115.431
aS'B3c'
p22
aF0.006
aF0.0994
aF0.1202
aF71.5
aF0.2769
aa(lp23
F0.0
aF104.758
aS'B3c'
p24
aF0.006
aF0.0994
aF0.1202
aF71.5
aF1.3841999999999999
aa(lp25
F0.0
aF92.023
aS'B3c'
p26
aF0.006
aF0.0994
aF0.1202
aF71.5
aF2.7600000000000002
aa(lp27
F0.0
aF73.63
aS'B3c'
p28
aF0.006
aF0.0994
aF0.1202
aF71.5
aF5.5371
aa(lp29
F14.806
aF56.456
aS'B3c'
p30
aF0.006
aF0.0994
aF0.1202
aF71.5
aF11.0739
aa(lp31
F0.0
aF160.499
aS'B3c'
p32
aF0.006
aF0.1491
aF0.1802
aF71.5
aF0.2769
aa(lp33
F0.0
aF149.825
aS'B3c'
p34
aF0.006
aF0.1491
aF0.1802
aF71.5
aF1.3841999999999999
aa(lp35
F0.0
aF136.883
aS'B3c'
p36
aF0.006
aF0.1491
aF0.1802
aF71.5
aF2.7600000000000002
aa(lp37
F0.0
aF116.321
aS'B3c'
p38
aF0.006
aF0.1491
aF0.1802
aF71.5
aF5.5371
aa(lp39
F9.729
aF93.708
aS'B3c'
p40
aF0.006
aF0.1491
aF0.1802
aF71.5
aF11.0739
aa(lp41
F0.0
aF205.567
aS'B3c'
p42
aF0.006
aF0.1988
aF0.2403
aF71.5
aF0.2769
aa(lp43
F0.0
aF194.893
aS'B3c'
p44
aF0.006
aF0.1988
aF0.2403
aF71.5
aF1.3841999999999999
aa(lp45
F0.0
aF181.852
aS'B3c'
p46
aF0.006
aF0.1988
aF0.2403
aF71.5
aF2.7600000000000002
aa(lp47
F0.0
aF160.028
aS'B3c'
p48
aF0.006
aF0.1988
aF0.2403
aF71.5
aF5.5371
aa(lp49
F8.338
aF133.532
aS'B3c'
p50
aF0.006
aF0.1988
aF0.2403
aF71.5
aF11.0739
aa(lp51
F0.0
aF295.7
aS'B3c'
p52
aF0.006
aF0.2981
aF0.3605
aF71.5
aF0.2769
aa(lp53
F0.0
aF285.025
aS'B3c'
p54
aF0.006
aF0.2981
aF0.3605
aF71.5
aF1.3841999999999999
aa(lp55
F0.0
aF271.883
aS'B3c'
p56
aF0.006
aF0.2981
aF0.3605
aF71.5
aF2.7600000000000002
aa(lp57
F0.0
aF248.587
aS'B3c'
p58
aF0.006
aF0.2981
aF0.3605
aF71.5
aF5.5371
aa(lp59
F6.417
aF216.684
aS'B3c'
p60
aF0.006
aF0.2981
aF0.3605
aF71.5
aF11.0739
aa(lp61
F0.0
aF371.137
aS'B3c'
p62
aF0.006
aF0.3975
aF0.4806
aF71.5
aF0.2769
aa(lp63
F0.0
aF360.461
aS'B3c'
p64
aF0.006
aF0.3975
aF0.4806
aF71.5
aF1.3841999999999999
aa(lp65
F0.0
aF347.271
aS'B3c'
p66
aF0.006
aF0.3975
aF0.4806
aF71.5
aF2.7600000000000002
aa(lp67
F0.0
aF323.237
aS'B3c'
p68
aF0.006
aF0.3975
aF0.4806
aF71.5
aF5.5371
aa(lp69
F4.229
aF288.296
aS'B3c'
p70
aF0.006
aF0.3975
aF0.4806
aF71.5
aF11.0739
aa(lp71
F2.676
aF3.564
aS'B3c'
p72
aF0.5
aF0.0
aF0.0
aF71.5
aF0.2769
aa(lp73
F7.56
aF3.455
aS'B3c'
p74
aF0.5
aF0.0
aF0.0
aF71.5
aF1.3841999999999999
aa(lp75
F14.926
aF3.368
aS'B3c'
p76
aF0.5
aF0.0
aF0.0
aF71.5
aF2.7600000000000002
aa(lp77
F26.83
aF3.395
aS'B3c'
p78
aF0.5
aF0.0
aF0.0
aF71.5
aF5.5371
aa(lp79
F52.714
aF3.943
aS'B3c'
p80
aF0.5
aF0.0
aF0.0
aF71.5
aF11.0739
aa(lp81
F0.0
aF31.466
aS'B3c'
p82
aF0.5
aF0.0497
aF0.0601
aF71.5
aF0.2769
aa(lp83
F0.0
aF23.595
aS'B3c'
p84
aF0.5
aF0.0497
aF0.0601
aF71.5
aF1.3841999999999999
aa(lp85
F3.531
aF21.357
aS'B3c'
p86
aF0.5
aF0.0497
aF0.0601
aF71.5
aF2.7600000000000002
aa(lp87
F14.244
aF17.514
aS'B3c'
p88
aF0.5
aF0.0497
aF0.0601
aF71.5
aF5.5371
aa(lp89
F36.5
aF14.333
aS'B3c'
p90
aF0.5
aF0.0497
aF0.0601
aF71.5
aF11.0739
aa(lp91
F0.0
aF74.4
aS'B3c'
p92
aF0.5
aF0.0994
aF0.1202
aF71.5
aF0.2769
aa(lp93
F0.0
aF67.194
aS'B3c'
p94
aF0.5
aF0.0994
aF0.1202
aF71.5
aF1.3841999999999999
aa(lp95
F1.257
aF60.368
aS'B3c'
p96
aF0.5
aF0.0994
aF0.1202
aF71.5
aF2.7600000000000002
aa(lp97
F8.2
aF51.073
aS'B3c'
p98
aF0.5
aF0.0994
aF0.1202
aF71.5
aF5.5371
aa(lp99
F29.328
aF35.236
aS'B3c'
p100
aF0.5
aF0.0994
aF0.1202
aF71.5
aF11.0739
aa(lp101
F0.0
aF114.627
aS'B3c'
p102
aF0.5
aF0.1491
aF0.1802
aF71.5
aF0.2769
aa(lp103
F0.0
aF106.593
aS'B3c'
p104
aF0.5
aF0.1491
aF0.1802
aF71.5
aF1.3841999999999999
aa(lp105
F0.0
aF98.545
aS'B3c'
p106
aF0.5
aF0.1491
aF0.1802
aF71.5
aF2.7600000000000002
aa(lp107
F6.791
aF86.762
aS'B3c'
p108
aF0.5
aF0.1491
aF0.1802
aF71.5
aF5.5371
aa(lp109
F25.194
aF72.161
aS'B3c'
p110
aF0.5
aF0.1491
aF0.1802
aF71.5
aF11.0739
aa(lp111
F0.0
aF155.257
aS'B3c'
p112
aF0.5
aF0.1988
aF0.2403
aF71.5
aF0.2769
aa(lp113
F0.0
aF146.691
aS'B3c'
p114
aF0.5
aF0.1988
aF0.2403
aF71.5
aF1.3841999999999999
aa(lp115
F0.0
aF137.832
aS'B3c'
p116
aF0.5
aF0.1988
aF0.2403
aF71.5
aF2.7600000000000002
aa(lp117
F5.86
aF124.284
aS'B3c'
p118
aF0.5
aF0.1988
aF0.2403
aF71.5
aF5.5371
aa(lp119
F22.458
aF106.169
aS'B3c'
p120
aF0.5
aF0.1988
aF0.2403
aF71.5
aF11.0739
aa(lp121
F0.0
aF236.861
aS'B3c'
p122
aF0.5
aF0.2981
aF0.3605
aF71.5
aF0.2769
aa(lp123
F0.0
aF227.721
aS'B3c'
p124
aF0.5
aF0.2981
aF0.3605
aF71.5
aF1.3841999999999999
aa(lp125
F0.0
aF217.873
aS'B3c'
p126
aF0.5
aF0.2981
aF0.3605
aF71.5
aF2.7600000000000002
aa(lp127
F3.616
aF201.987
aS'B3c'
p128
aF0.5
aF0.2981
aF0.3605
aF71.5
aF5.5371
aa(lp129
F17.84
aF178.914
aS'B3c'
p130
aF0.5
aF0.2981
aF0.3605
aF71.5
aF11.0739
aa(lp131
F0.0
aF307.48
aS'B3c'
p132
aF0.5
aF0.3975
aF0.4806
aF71.5
aF0.2769
aa(lp133
F0.0
aF298.063
aS'B3c'
p134
aF0.5
aF0.3975
aF0.4806
aF71.5
aF1.3841999999999999
aa(lp135
F0.0
aF287.657
aS'B3c'
p136
aF0.5
aF0.3975
aF0.4806
aF71.5
aF2.7600000000000002
aa(lp137
F3.099
aF270.393
aS'B3c'
p138
aF0.5
aF0.3975
aF0.4806
aF71.5
aF5.5371
aa(lp139
F15.811
aF244.251
aS'B3c'
p140
aF0.5
aF0.3975
aF0.4806
aF71.5
aF11.0739
aa(lp141
F10.242
aF1.642
aS'B3c'
p142
aF0.75
aF0.0
aF0.0
aF71.5
aF0.2769
aa(lp143
F15.721
aF1.616
aS'B3c'
p144
aF0.75
aF0.0
aF0.0
aF71.5
aF1.3841999999999999
aa(lp145
F21.581
aF1.614
aS'B3c'
p146
aF0.75
aF0.0
aF0.0
aF71.5
aF2.7600000000000002
aa(lp147
F33.56
aF3.223
aS'B3c'
p148
aF0.75
aF0.0
aF0.0
aF71.5
aF5.5371
aa(lp149
F61.348
aF3.888
aS'B3c'
p150
aF0.75
aF0.0
aF0.0
aF71.5
aF11.0739
aa(lp151
F2.669
aF21.397
aS'B3c'
p152
aF0.75
aF0.0497
aF0.0601
aF71.5
aF0.2769
aa(lp153
F5.511
aF18.189
aS'B3c'
p154
aF0.75
aF0.0497
aF0.0601
aF71.5
aF1.3841999999999999
aa(lp155
F11.03
aF17.027
aS'B3c'
p156
aF0.75
aF0.0497
aF0.0601
aF71.5
aF2.7600000000000002
aa(lp157
F21.485
aF14.01
aS'B3c'
p158
aF0.75
aF0.0497
aF0.0601
aF71.5
aF5.5371
aa(lp159
F43.348
aF11.828
aS'B3c'
p160
aF0.75
aF0.0497
aF0.0601
aF71.5
aF11.0739
aa(lp161
F0.0
aF62.015
aS'B3c'
p162
aF0.75
aF0.0994
aF0.1202
aF71.5
aF0.2769
aa(lp163
F3.102
aF56.705
aS'B3c'
p164
aF0.75
aF0.0994
aF0.1202
aF71.5
aF1.3841999999999999
aa(lp165
F6.44
aF51.485
aS'B3c'
p166
aF0.75
aF0.0994
aF0.1202
aF71.5
aF2.7600000000000002
aa(lp167
F15.712
aF42.751
aS'B3c'
p168
aF0.75
aF0.0994
aF0.1202
aF71.5
aF5.5371
aa(lp169
F35.714
aF30.431
aS'B3c'
p170
aF0.75
aF0.0994
aF0.1202
aF71.5
aF11.0739
aa(lp171
F0.0
aF99.386
aS'B3c'
p172
aF0.75
aF0.1491
aF0.1802
aF71.5
aF0.2769
aa(lp173
F2.545
aF93.155
aS'B3c'
p174
aF0.75
aF0.1491
aF0.1802
aF71.5
aF1.3841999999999999
aa(lp175
F5.394
aF86.746
aS'B3c'
p176
aF0.75
aF0.1491
aF0.1802
aF71.5
aF2.7600000000000002
aa(lp177
F13.384
aF76.904
aS'B3c'
p178
aF0.75
aF0.1491
aF0.1802
aF71.5
aF5.5371
aa(lp179
F31.265
aF64.56
aS'B3c'
p180
aF0.75
aF0.1491
aF0.1802
aF71.5
aF11.0739
aa(lp181
F0.0
aF137.519
aS'B3c'
p182
aF0.75
aF0.1988
aF0.2403
aF71.5
aF0.2769
aa(lp183
F0.0
aF130.699
aS'B3c'
p184
aF0.75
aF0.1988
aF0.2403
aF71.5
aF1.3841999999999999
aa(lp185
F3.581
aF123.476
aS'B3c'
p186
aF0.75
aF0.1988
aF0.2403
aF71.5
aF2.7600000000000002
aa(lp187
F11.887
aF111.932
aS'B3c'
p188
aF0.75
aF0.1988
aF0.2403
aF71.5
aF5.5371
aa(lp189
F28.278
aF96.002
aS'B3c'
p190
aF0.75
aF0.1988
aF0.2403
aF71.5
aF11.0739
aa(lp191
F0.0
aF214.704
aS'B3c'
p192
aF0.75
aF0.2981
aF0.3605
aF71.5
aF0.2769
aa(lp193
F0.0
aF207.147
aS'B3c'
p194
aF0.75
aF0.2981
aF0.3605
aF71.5
aF1.3841999999999999
aa(lp195
F2.964
aF198.842
aS'B3c'
p196
aF0.75
aF0.2981
aF0.3605
aF71.5
aF2.7600000000000002
aa(lp197
F7.751
aF184.983
aS'B3c'
p198
aF0.75
aF0.2981
aF0.3605
aF71.5
aF5.5371
aa(lp199
F24.377
aF164.171
aS'B3c'
p200
aF0.75
aF0.2981
aF0.3605
aF71.5
aF11.0739
aa(lp201
F0.0
aF282.888
aS'B3c'
p202
aF0.75
aF0.3975
aF0.4806
aF71.5
aF0.2769
aa(lp203
F0.0
aF274.94
aS'B3c'
p204
aF0.75
aF0.3975
aF0.4806
aF71.5
aF1.3841999999999999
aa(lp205
F2.62
aF265.993
aS'B3c'
p206
aF0.75
aF0.3975
aF0.4806
aF71.5
aF2.7600000000000002
aa(lp207
F6.954
aF250.725
aS'B3c'
p208
aF0.75
aF0.3975
aF0.4806
aF71.5
aF5.5371
aa(lp209
F21.956
aF226.81
aS'B3c'
p210
aF0.75
aF0.3975
aF0.4806
aF71.5
aF11.0739
aa(lp211
F16.977
aF0.0
aS'B3c'
p212
aF1.0
aF0.0
aF0.0
aF71.5
aF0.2769
aa(lp213
F21.594
aF0.0
aS'B3c'
p214
aF1.0
aF0.0
aF0.0
aF71.5
aF1.3841999999999999
aa(lp215
F27.532
aF1.511
aS'B3c'
p216
aF1.0
aF0.0
aF0.0
aF71.5
aF2.7600000000000002
aa(lp217
F40.967
aF1.643
aS'B3c'
p218
aF1.0
aF0.0
aF0.0
aF71.5
aF5.5371
aa(lp219
F68.106
aF3.861
aS'B3c'
p220
aF1.0
aF0.0
aF0.0
aF71.5
aF11.0739
aa(lp221
F6.479
aF16.757
aS'B3c'
p222
aF1.0
aF0.0497
aF0.0601
aF71.5
aF0.2769
aa(lp223
F11.71
aF15.859
aS'B3c'
p224
aF1.0
aF0.0497
aF0.0601
aF71.5
aF1.3841999999999999
aa(lp225
F17.218
aF13.478
aS'B3c'
p226
aF1.0
aF0.0497
aF0.0601
aF71.5
aF2.7600000000000002
aa(lp227
F27.304
aF12.658
aS'B3c'
p228
aF1.0
aF0.0497
aF0.0601
aF71.5
aF5.5371
aa(lp229
F51.047
aF11.119
aS'B3c'
p230
aF1.0
aF0.0497
aF0.0601
aF71.5
aF11.0739
aa(lp231
F5.209
aF53.062
aS'B3c'
p232
aF1.0
aF0.0994
aF0.1202
aF71.5
aF0.2769
aa(lp233
F6.975
aF48.814
aS'B3c'
p234
aF1.0
aF0.0994
aF0.1202
aF71.5
aF1.3841999999999999
aa(lp235
F12.679
aF44.631
aS'B3c'
p236
aF1.0
aF0.0994
aF0.1202
aF71.5
aF2.7600000000000002
aa(lp237
F22.088
aF32.618
aS'B3c'
p238
aF1.0
aF0.0994
aF0.1202
aF71.5
aF5.5371
aa(lp239
F41.563
aF26.559
aS'B3c'
p240
aF1.0
aF0.0994
aF0.1202
aF71.5
aF11.0739
aa(lp241
F3.331
aF87.889
aS'B3c'
p242
aF1.0
aF0.1491
aF0.1802
aF71.5
aF0.2769
aa(lp243
F6.059
aF82.688
aS'B3c'
p244
aF1.0
aF0.1491
aF0.1802
aF71.5
aF1.3841999999999999
aa(lp245
F10.969
aF77.219
aS'B3c'
p246
aF1.0
aF0.1491
aF0.1802
aF71.5
aF2.7600000000000002
aa(lp247
F19.244
aF68.736
aS'B3c'
p248
aF1.0
aF0.1491
aF0.1802
aF71.5
aF5.5371
aa(lp249
F36.822
aF58.241
aS'B3c'
p250
aF1.0
aF0.1491
aF0.1802
aF71.5
aF11.0739
aa(lp251
F3.006
aF123.805
aS'B3c'
p252
aF1.0
aF0.1988
aF0.2403
aF71.5
aF0.2769
aa(lp253
F5.492
aF117.981
aS'B3c'
p254
aF1.0
aF0.1988
aF0.2403
aF71.5
aF1.3841999999999999
aa(lp255
F8.73
aF111.661
aS'B3c'
p256
aF1.0
aF0.1988
aF0.2403
aF71.5
aF2.7600000000000002
aa(lp257
F17.431
aF101.45
aS'B3c'
p258
aF1.0
aF0.1988
aF0.2403
aF71.5
aF5.5371
aa(lp259
F33.618
aF87.354
aS'B3c'
p260
aF1.0
aF0.1988
aF0.2403
aF71.5
aF11.0739
aa(lp261
F2.639
aF196.914
aS'B3c'
p262
aF1.0
aF0.2981
aF0.3605
aF71.5
aF0.2769
aa(lp263
F4.792
aF190.268
aS'B3c'
p264
aF1.0
aF0.2981
aF0.3605
aF71.5
aF1.3841999999999999
aa(lp265
F6.531
aF182.878
aS'B3c'
p266
aF1.0
aF0.2981
aF0.3605
aF71.5
aF2.7600000000000002
aa(lp267
F14.072
aF170.284
aS'B3c'
p268
aF1.0
aF0.2981
aF0.3605
aF71.5
aF5.5371
aa(lp269
F29.438
aF151.265
aS'B3c'
p270
aF1.0
aF0.2981
aF0.3605
aF71.5
aF11.0739
aa(lp271
F1.291
aF262.851
aS'B3c'
p272
aF1.0
aF0.3975
aF0.4806
aF71.5
aF0.2769
aa(lp273
F3.252
aF255.722
aS'B3c'
p274
aF1.0
aF0.3975
aF0.4806
aF71.5
aF1.3841999999999999
aa(lp275
F5.973
aF247.631
aS'B3c'
p276
aF1.0
aF0.3975
aF0.4806
aF71.5
aF2.7600000000000002
aa(lp277
F12.818
aF233.639
aS'B3c'
p278
aF1.0
aF0.3975
aF0.4806
aF71.5
aF5.5371
aa(lp279
F26.875
aF211.478
aS'B3c'
p280
aF1.0
aF0.3975
aF0.4806
aF71.5
aF11.0739
aa(lp281
F22.195
aF0.0
aS'B3c'
p282
aF1.25
aF0.0
aF0.0
aF71.5
aF0.2769
aa(lp283
F26.919
aF0.0
aS'B3c'
p284
aF1.25
aF0.0
aF0.0
aF71.5
aF1.3841999999999999
aa(lp285
F32.903
aF0.0
aS'B3c'
p286
aF1.25
aF0.0
aF0.0
aF71.5
aF2.7600000000000002
aa(lp287
F46.723
aF1.602
aS'B3c'
p288
aF1.25
aF0.0
aF0.0
aF71.5
aF5.5371
aa(lp289
F74.17
aF3.848
aS'B3c'
p290
aF1.25
aF0.0
aF0.0
aF71.5
aF11.0739
aa(lp291
F12.713
aF14.691
aS'B3c'
p292
aF1.25
aF0.0497
aF0.0601
aF71.5
aF0.2769
aa(lp293
F17.416
aF12.607
aS'B3c'
p294
aF1.25
aF0.0497
aF0.0601
aF71.5
aF1.3841999999999999
aa(lp295
F22.212
aF12.134
aS'B3c'
p296
aF1.25
aF0.0497
aF0.0601
aF71.5
aF2.7600000000000002
aa(lp297
F32.571
aF10.367
aS'B3c'
p298
aF1.25
aF0.0497
aF0.0601
aF71.5
aF5.5371
aa(lp299
F58.331
aF10.515
aS'B3c'
p300
aF1.25
aF0.0497
aF0.0601
aF71.5
aF11.0739
aa(lp301
F10.417
aF45.861
aS'B3c'
p302
aF1.25
aF0.0994
aF0.1202
aF71.5
aF0.2769
aa(lp303
F13.046
aF42.403
aS'B3c'
p304
aF1.25
aF0.0994
aF0.1202
aF71.5
aF1.3841999999999999
aa(lp305
F18.094
aF32.131
aS'B3c'
p306
aF1.25
aF0.0994
aF0.1202
aF71.5
aF2.7600000000000002
aa(lp307
F26.914
aF29.53
aS'B3c'
p308
aF1.25
aF0.0994
aF0.1202
aF71.5
aF5.5371
aa(lp309
F48.269
aF24.628
aS'B3c'
p310
aF1.25
aF0.0994
aF0.1202
aF71.5
aF11.0739
aa(lp311
F8.082
aF78.322
aS'B3c'
p312
aF1.25
aF0.1491
aF0.1802
aF71.5
aF0.2769
aa(lp313
F11.536
aF73.812
aS'B3c'
p314
aF1.25
aF0.1491
aF0.1802
aF71.5
aF1.3841999999999999
aa(lp315
F15.95
aF69.08
aS'B3c'
p316
aF1.25
aF0.1491
aF0.1802
aF71.5
aF2.7600000000000002
aa(lp317
F23.82
aF61.759
aS'B3c'
p318
aF1.25
aF0.1491
aF0.1802
aF71.5
aF5.5371
aa(lp319
F41.803
aF52.736
aS'B3c'
p320
aF1.25
aF0.1491
aF0.1802
aF71.5
aF11.0739
aa(lp321
F6.274
aF112.126
aS'B3c'
p322
aF1.25
aF0.1988
aF0.2403
aF71.5
aF0.2769
aa(lp323
F10.573
aF106.947
aS'B3c'
p324
aF1.25
aF0.1988
aF0.2403
aF71.5
aF1.3841999999999999
aa(lp325
F13.493
aF101.351
aS'B3c'
p326
aF1.25
aF0.1988
aF0.2403
aF71.5
aF2.7600000000000002
aa(lp327
F21.785
aF92.216
aS'B3c'
p328
aF1.25
aF0.1988
aF0.2403
aF71.5
aF5.5371
aa(lp329
F38.362
aF79.654
aS'B3c'
p330
aF1.25
aF0.1988
aF0.2403
aF71.5
aF11.0739
aa(lp331
F5.656
aF181.461
aS'B3c'
p332
aF1.25
aF0.2981
aF0.3605
aF71.5
aF0.2769
aa(lp333
F8.239
aF175.44
aS'B3c'
p334
aF1.25
aF0.2981
aF0.3605
aF71.5
aF1.3841999999999999
aa(lp335
F11.945
aF168.708
aS'B3c'
p336
aF1.25
aF0.2981
aF0.3605
aF71.5
aF2.7600000000000002
aa(lp337
F19.19
aF157.165
aS'B3c'
p338
aF1.25
aF0.2981
aF0.3605
aF71.5
aF5.5371
aa(lp339
F33.912
aF139.602
aS'B3c'
p340
aF1.25
aF0.2981
aF0.3605
aF71.5
aF11.0739
aa(lp341
F5.319
aF245.204
aS'B3c'
p342
aF1.25
aF0.3975
aF0.4806
aF71.5
aF0.2769
aa(lp343
F6.484
aF238.626
aS'B3c'
p344
aF1.25
aF0.3975
aF0.4806
aF71.5
aF1.3841999999999999
aa(lp345
F11.026
aF231.176
aS'B3c'
p346
aF1.25
aF0.3975
aF0.4806
aF71.5
aF2.7600000000000002
aa(lp347
F17.625
aF218.173
aS'B3c'
p348
aF1.25
aF0.3975
aF0.4806
aF71.5
aF5.5371
aa(lp349
F31.161
aF197.474
aS'B3c'
p350
aF1.25
aF0.3975
aF0.4806
aF71.5
aF11.0739
aa(lp351
F26.995
aF0.0
aS'B3c'
p352
aF1.5
aF0.0
aF0.0
aF71.5
aF0.2769
aa(lp353
F32.984
aF0.0
aS'B3c'
p354
aF1.5
aF0.0
aF0.0
aF71.5
aF1.3841999999999999
aa(lp355
F39.268
aF0.0
aS'B3c'
p356
aF1.5
aF0.0
aF0.0
aF71.5
aF2.7600000000000002
aa(lp357
F53.304
aF1.578
aS'B3c'
p358
aF1.5
aF0.0
aF0.0
aF71.5
aF5.5371
aa(lp359
F79.671
aF3.849
aS'B3c'
p360
aF1.5
aF0.0
aF0.0
aF71.5
aF11.0739
aa(lp361
F18.121
aF11.764
aS'B3c'
p362
aF1.5
aF0.0497
aF0.0601
aF71.5
aF0.2769
aa(lp363
F21.842
aF9.962
aS'B3c'
p364
aF1.5
aF0.0497
aF0.0601
aF71.5
aF1.3841999999999999
aa(lp365
F26.773
aF9.813
aS'B3c'
p366
aF1.5
aF0.0497
aF0.0601
aF71.5
aF2.7600000000000002
aa(lp367
F38.573
aF9.708
aS'B3c'
p368
aF1.5
aF0.0497
aF0.0601
aF71.5
aF5.5371
aa(lp369
F64.084
aF8.561
aS'B3c'
p370
aF1.5
aF0.0497
aF0.0601
aF71.5
aF11.0739
aa(lp371
F15.067
aF38.592
aS'B3c'
p372
aF1.5
aF0.0994
aF0.1202
aF71.5
aF0.2769
aa(lp373
F18.126
aF30.572
aS'B3c'
p374
aF1.5
aF0.0994
aF0.1202
aF71.5
aF1.3841999999999999
aa(lp375
F22.299
aF29.095
aS'B3c'
p376
aF1.5
aF0.0994
aF0.1202
aF71.5
aF2.7600000000000002
aa(lp377
F31.353
aF24.351
aS'B3c'
p378
aF1.5
aF0.0994
aF0.1202
aF71.5
aF5.5371
aa(lp379
F54.836
aF22.977
aS'B3c'
p380
aF1.5
aF0.0994
aF0.1202
aF71.5
aF11.0739
aa(lp381
F12.394
aF70.219
aS'B3c'
p382
aF1.5
aF0.1491
aF0.1802
aF71.5
aF0.2769
aa(lp383
F16.213
aF66.295
aS'B3c'
p384
aF1.5
aF0.1491
aF0.1802
aF71.5
aF1.3841999999999999
aa(lp385
F19.871
aF62.159
aS'B3c'
p386
aF1.5
aF0.1491
aF0.1802
aF71.5
aF2.7600000000000002
aa(lp387
F27.983
aF55.782
aS'B3c'
p388
aF1.5
aF0.1491
aF0.1802
aF71.5
aF5.5371
aa(lp389
F49.107
aF45.405
aS'B3c'
p390
aF1.5
aF0.1491
aF0.1802
aF71.5
aF11.0739
aa(lp391
F11.499
aF102.062
aS'B3c'
p392
aF1.5
aF0.1988
aF0.2403
aF71.5
aF0.2769
aa(lp393
F15.003
aF97.442
aS'B3c'
p394
aF1.5
aF0.1988
aF0.2403
aF71.5
aF1.3841999999999999
aa(lp395
F18.338
aF92.398
aS'B3c'
p396
aF1.5
aF0.1988
aF0.2403
aF71.5
aF2.7600000000000002
aa(lp397
F25.766
aF84.182
aS'B3c'
p398
aF1.5
aF0.1988
aF0.2403
aF71.5
aF5.5371
aa(lp399
F44.09
aF72.973
aS'B3c'
p400
aF1.5
aF0.1988
aF0.2403
aF71.5
aF11.0739
aa(lp401
F10.446
aF167.889
aS'B3c'
p402
aF1.5
aF0.2981
aF0.3605
aF71.5
aF0.2769
aa(lp403
F12.376
aF162.401
aS'B3c'
p404
aF1.5
aF0.2981
aF0.3605
aF71.5
aF1.3841999999999999
aa(lp405
F16.432
aF156.17
aS'B3c'
p406
aF1.5
aF0.2981
aF0.3605
aF71.5
aF2.7600000000000002
aa(lp407
F22.939
aF145.539
aS'B3c'
p408
aF1.5
aF0.2981
aF0.3605
aF71.5
aF5.5371
aa(lp409
F38.016
aF129.265
aS'B3c'
p410
aF1.5
aF0.2981
aF0.3605
aF71.5
aF11.0739
aa(lp411
F9.843
aF229.544
aS'B3c'
p412
aF1.5
aF0.3975
aF0.4806
aF71.5
aF0.2769
aa(lp413
F11.571
aF223.461
aS'B3c'
p414
aF1.5
aF0.3975
aF0.4806
aF71.5
aF1.3841999999999999
aa(lp415
F15.295
aF216.537
aS'B3c'
p416
aF1.5
aF0.3975
aF0.4806
aF71.5
aF2.7600000000000002
aa(lp417
F21.215
aF204.376
aS'B3c'
p418
aF1.5
aF0.3975
aF0.4806
aF71.5
aF5.5371
aa(lp419
F35.077
aF184.897
aS'B3c'
p420
aF1.5
aF0.3975
aF0.4806
aF71.5
aF11.0739
aa(lp421
F40.966
aF0.0
aS'B3c'
p422
aF2.25
aF0.0
aF0.0
aF71.5
aF0.2769
aa(lp423
F47.349
aF0.0
aS'B3c'
p424
aF2.25
aF0.0
aF0.0
aF71.5
aF1.3841999999999999
aa(lp425
F53.919
aF0.0
aS'B3c'
p426
aF2.25
aF0.0
aF0.0
aF71.5
aF2.7600000000000002
aa(lp427
F67.089
aF1.55
aS'B3c'
p428
aF2.25
aF0.0
aF0.0
aF71.5
aF5.5371
aa(lp429
F93.532
aF3.885
aS'B3c'
p430
aF2.25
aF0.0
aF0.0
aF71.5
aF11.0739
aa(lp431
F29.13
aF6.657
aS'B3c'
p432
aF2.25
aF0.0497
aF0.0601
aF71.5
aF0.2769
aa(lp433
F34.496
aF6.72
aS'B3c'
p434
aF2.25
aF0.0497
aF0.0601
aF71.5
aF1.3841999999999999
aa(lp435
F40.101
aF6.828
aS'B3c'
p436
aF2.25
aF0.0497
aF0.0601
aF71.5
aF2.7600000000000002
aa(lp437
F53.312
aF7.116
aS'B3c'
p438
aF2.25
aF0.0497
aF0.0601
aF71.5
aF5.5371
aa(lp439
F78.78
aF7.86
aS'B3c'
p440
aF2.25
aF0.0497
aF0.0601
aF71.5
aF11.0739
aa(lp441
F24.994
aF21.381
aS'B3c'
p442
aF2.25
aF0.0994
aF0.1202
aF71.5
aF0.2769
aa(lp443
F28.43
aF20.893
aS'B3c'
p444
aF2.25
aF0.0994
aF0.1202
aF71.5
aF1.3841999999999999
aa(lp445
F32.992
aF20.388
aS'B3c'
p446
aF2.25
aF0.0994
aF0.1202
aF71.5
aF2.7600000000000002
aa(lp447
F45.691
aF19.666
aS'B3c'
p448
aF2.25
aF0.0994
aF0.1202
aF71.5
aF5.5371
aa(lp449
F68.965
aF19.07
aS'B3c'
p450
aF2.25
aF0.0994
aF0.1202
aF71.5
aF11.0739
aa(lp451
F22.732
aF51.769
aS'B3c'
p452
aF2.25
aF0.1491
aF0.1802
aF71.5
aF0.2769
aa(lp453
F25.823
aF49.065
aS'B3c'
p454
aF2.25
aF0.1491
aF0.1802
aF71.5
aF1.3841999999999999
aa(lp455
F29.895
aF44.876
aS'B3c'
p456
aF2.25
aF0.1491
aF0.1802
aF71.5
aF2.7600000000000002
aa(lp457
F40.107
aF35.734
aS'B3c'
p458
aF2.25
aF0.1491
aF0.1802
aF71.5
aF5.5371
aa(lp459
F62.605
aF31.743
aS'B3c'
p460
aF2.25
aF0.1491
aF0.1802
aF71.5
aF11.0739
aa(lp461
F21.269
aF78.289
aS'B3c'
p462
aF2.25
aF0.1988
aF0.2403
aF71.5
aF0.2769
aa(lp463
F24.049
aF74.836
aS'B3c'
p464
aF2.25
aF0.1988
aF0.2403
aF71.5
aF1.3841999999999999
aa(lp465
F27.795
aF71.101
aS'B3c'
p466
aF2.25
aF0.1988
aF0.2403
aF71.5
aF2.7600000000000002
aa(lp467
F37.203
aF65.057
aS'B3c'
p468
aF2.25
aF0.1988
aF0.2403
aF71.5
aF5.5371
aa(lp469
F58.054
aF57.026
aS'B3c'
p470
aF2.25
aF0.1988
aF0.2403
aF71.5
aF11.0739
aa(lp471
F19.488
aF134.686
aS'B3c'
p472
aF2.25
aF0.2981
aF0.3605
aF71.5
aF0.2769
aa(lp473
F21.926
aF130.256
aS'B3c'
p474
aF2.25
aF0.2981
aF0.3605
aF71.5
aF1.3841999999999999
aa(lp475
F25.166
aF125.254
aS'B3c'
p476
aF2.25
aF0.2981
aF0.3605
aF71.5
aF2.7600000000000002
aa(lp477
F33.519
aF116.596
aS'B3c'
p478
aF2.25
aF0.2981
aF0.3605
aF71.5
aF5.5371
aa(lp479
F51.988
aF103.682
aS'B3c'
p480
aF2.25
aF0.2981
aF0.3605
aF71.5
aF11.0739
aa(lp481
F18.424
aF190.881
aS'B3c'
p482
aF2.25
aF0.3975
aF0.4806
aF71.5
aF0.2769
aa(lp483
F20.621
aF185.87
aS'B3c'
p484
aF2.25
aF0.3975
aF0.4806
aF71.5
aF1.3841999999999999
aa(lp485
F23.573
aF180.041
aS'B3c'
p486
aF2.25
aF0.3975
aF0.4806
aF71.5
aF2.7600000000000002
aa(lp487
F30.055
aF169.773
aS'B3c'
p488
aF2.25
aF0.3975
aF0.4806
aF71.5
aF5.5371
aa(lp489
F48.153
aF153.258
aS'B3c'
p490
aF2.25
aF0.3975
aF0.4806
aF71.5
aF11.0739
aa(lp491
F57.227
aF0.0
aS'B3c'
p492
aF3.45
aF0.0
aF0.0
aF71.5
aF0.2769
aa(lp493
F62.502
aF0.0
aS'B3c'
p494
aF3.45
aF0.0
aF0.0
aF71.5
aF1.3841999999999999
aa(lp495
F69.105
aF0.0
aS'B3c'
p496
aF3.45
aF0.0
aF0.0
aF71.5
aF2.7600000000000002
aa(lp497
F82.325
aF1.554
aS'B3c'
p498
aF3.45
aF0.0
aF0.0
aF71.5
aF5.5371
aa(lp499
F110.059
aF3.948
aS'B3c'
p500
aF3.45
aF0.0
aF0.0
aF71.5
aF11.0739
aa(lp501
F45.63
aF5.536
aS'B3c'
p502
aF3.45
aF0.0497
aF0.0601
aF71.5
aF0.2769
aa(lp503
F50.523
aF5.669
aS'B3c'
p504
aF3.45
aF0.0497
aF0.0601
aF71.5
aF1.3841999999999999
aa(lp505
F56.77
aF5.849
aS'B3c'
p506
aF3.45
aF0.0497
aF0.0601
aF71.5
aF2.7600000000000002
aa(lp507
F69.545
aF6.248
aS'B3c'
p508
aF3.45
aF0.0497
aF0.0601
aF71.5
aF5.5371
aa(lp509
F95.54
aF7.127
aS'B3c'
p510
aF3.45
aF0.0497
aF0.0601
aF71.5
aF11.0739
aa(lp511
F39.528
aF15.49
aS'B3c'
p512
aF3.45
aF0.0994
aF0.1202
aF71.5
aF0.2769
aa(lp513
F43.767
aF15.271
aS'B3c'
p514
aF3.45
aF0.0994
aF0.1202
aF71.5
aF1.3841999999999999
aa(lp515
F49.316
aF12.267
aS'B3c'
p516
aF3.45
aF0.0994
aF0.1202
aF71.5
aF2.7600000000000002
aa(lp517
F60.937
aF12.415
aS'B3c'
p518
aF3.45
aF0.0994
aF0.1202
aF71.5
aF5.5371
aa(lp519
F85.519
aF12.942
aS'B3c'
p520
aF3.45
aF0.0994
aF0.1202
aF71.5
aF11.0739
aa(lp521
F35.001
aF28.96
aS'B3c'
p522
aF3.45
aF0.1491
aF0.1802
aF71.5
aF0.2769
aa(lp523
F39.911
aF26.843
aS'B3c'
p524
aF3.45
aF0.1491
aF0.1802
aF71.5
aF1.3841999999999999
aa(lp525
F44.88
aF24.836
aS'B3c'
p526
aF3.45
aF0.1491
aF0.1802
aF71.5
aF2.7600000000000002
aa(lp527
F55.483
aF24.208
aS'B3c'
p528
aF3.45
aF0.1491
aF0.1802
aF71.5
aF5.5371
aa(lp529
F78.422
aF23.551
aS'B3c'
p530
aF3.45
aF0.1491
aF0.1802
aF71.5
aF11.0739
aa(lp531
F32.836
aF53.615
aS'B3c'
p532
aF3.45
aF0.1988
aF0.2403
aF71.5
aF0.2769
aa(lp533
F37.392
aF51.344
aS'B3c'
p534
aF3.45
aF0.1988
aF0.2403
aF71.5
aF1.3841999999999999
aa(lp535
F41.929
aF47.635
aS'B3c'
p536
aF3.45
aF0.1988
aF0.2403
aF71.5
aF2.7600000000000002
aa(lp537
F51.692
aF40.131
aS'B3c'
p538
aF3.45
aF0.1988
aF0.2403
aF71.5
aF5.5371
aa(lp539
F73.277
aF34.767
aS'B3c'
p540
aF3.45
aF0.1988
aF0.2403
aF71.5
aF11.0739
aa(lp541
F29.942
aF97.948
aS'B3c'
p542
aF3.45
aF0.2981
aF0.3605
aF71.5
aF0.2769
aa(lp543
F32.897
aF94.591
aS'B3c'
p544
aF3.45
aF0.2981
aF0.3605
aF71.5
aF1.3841999999999999
aa(lp545
F38.067
aF90.833
aS'B3c'
p546
aF3.45
aF0.2981
aF0.3605
aF71.5
aF2.7600000000000002
aa(lp547
F46.682
aF84.539
aS'B3c'
p548
aF3.45
aF0.2981
aF0.3605
aF71.5
aF5.5371
aa(lp549
F66.032
aF75.333
aS'B3c'
p550
aF3.45
aF0.2981
aF0.3605
aF71.5
aF11.0739
aa(lp551
F28.119
aF146.822
aS'B3c'
p552
aF3.45
aF0.3975
aF0.4806
aF71.5
aF0.2769
aa(lp553
F30.756
aF142.773
aS'B3c'
p554
aF3.45
aF0.3975
aF0.4806
aF71.5
aF1.3841999999999999
aa(lp555
F35.495
aF138.079
aS'B3c'
p556
aF3.45
aF0.3975
aF0.4806
aF71.5
aF2.7600000000000002
aa(lp557
F43.368
aF129.8
aS'B3c'
p558
aF3.45
aF0.3975
aF0.4806
aF71.5
aF5.5371
aa(lp559
F61.021
aF116.97
aS'B3c'
p560
aF3.45
aF0.3975
aF0.4806
aF71.5
aF11.0739
aa(lp561
F0.0
aF25.536
aS'B3c'
p562
aF0.006
aF0.0
aF0.0
aF656.5
aF0.2769
aa(lp563
F0.0
aF9.738
aS'B3c'
p564
aF0.006
aF0.0
aF0.0
aF656.5
aF1.3841999999999999
aa(lp565
F0.0
aF4.398
aS'B3c'
p566
aF0.006
aF0.0
aF0.0
aF656.5
aF2.7600000000000002
aa(lp567
F8.757
aF4.015
aS'B3c'
p568
aF0.006
aF0.0
aF0.0
aF656.5
aF5.5371
aa(lp569
F34.142
aF3.878
aS'B3c'
p570
aF0.006
aF0.0
aF0.0
aF656.5
aF11.0739
aa(lp571
F0.0
aF70.203
aS'B3c'
p572
aF0.006
aF0.0497
aF0.0601
aF656.5
aF0.2769
aa(lp573
F0.0
aF59.455
aS'B3c'
p574
aF0.006
aF0.0497
aF0.0601
aF656.5
aF1.3841999999999999
aa(lp575
F0.0
aF46.427
aS'B3c'
p576
aF0.006
aF0.0497
aF0.0601
aF656.5
aF2.7600000000000002
aa(lp577
F0.0
aF25.529
aS'B3c'
p578
aF0.006
aF0.0497
aF0.0601
aF656.5
aF5.5371
aa(lp579
F16.116
aF16.51
aS'B3c'
p580
aF0.006
aF0.0497
aF0.0601
aF656.5
aF11.0739
aa(lp581
F0.0
aF115.173
aS'B3c'
p582
aF0.006
aF0.0994
aF0.1202
aF656.5
aF0.2769
aa(lp583
F0.0
aF104.424
aS'B3c'
p584
aF0.006
aF0.0994
aF0.1202
aF656.5
aF1.3841999999999999
aa(lp585
F0.0
aF91.1
aS'B3c'
p586
aF0.006
aF0.0994
aF0.1202
aF656.5
aF2.7600000000000002
aa(lp587
F0.0
aF68.265
aS'B3c'
p588
aF0.006
aF0.0994
aF0.1202
aF656.5
aF5.5371
aa(lp589
F7.454
aF40.333
aS'B3c'
p590
aF0.006
aF0.0994
aF0.1202
aF656.5
aF11.0739
aa(lp591
F0.0
aF160.142
aS'B3c'
p592
aF0.006
aF0.1491
aF0.1802
aF656.5
aF0.2769
aa(lp593
F0.0
aF149.393
aS'B3c'
p594
aF0.006
aF0.1491
aF0.1802
aF656.5
aF1.3841999999999999
aa(lp595
F0.0
aF135.998
aS'B3c'
p596
aF0.006
aF0.1491
aF0.1802
aF656.5
aF2.7600000000000002
aa(lp597
F0.0
aF111.319
aS'B3c'
p598
aF0.006
aF0.1491
aF0.1802
aF656.5
aF5.5371
aa(lp599
F3.451
aF80.04
aS'B3c'
p600
aF0.006
aF0.1491
aF0.1802
aF656.5
aF11.0739
aa(lp601
F0.0
aF205.111
aS'B3c'
p602
aF0.006
aF0.1988
aF0.2403
aF656.5
aF0.2769
aa(lp603
F0.0
aF194.363
aS'B3c'
p604
aF0.006
aF0.1988
aF0.2403
aF656.5
aF1.3841999999999999
aa(lp605
F0.0
aF180.947
aS'B3c'
p606
aF0.006
aF0.1988
aF0.2403
aF656.5
aF2.7600000000000002
aa(lp607
F0.0
aF155.43
aS'B3c'
p608
aF0.006
aF0.1988
aF0.2403
aF656.5
aF5.5371
aa(lp609
F1.272
aF118.133
aS'B3c'
p610
aF0.006
aF0.1988
aF0.2403
aF656.5
aF11.0739
aa(lp611
F0.0
aF295.046
aS'B3c'
p612
aF0.006
aF0.2981
aF0.3605
aF656.5
aF0.2769
aa(lp613
F0.0
aF284.298
aS'B3c'
p614
aF0.006
aF0.2981
aF0.3605
aF656.5
aF1.3841999999999999
aa(lp615
F0.0
aF270.868
aS'B3c'
p616
aF0.006
aF0.2981
aF0.3605
aF656.5
aF2.7600000000000002
aa(lp617
F0.0
aF244.578
aS'B3c'
p618
aF0.006
aF0.2981
aF0.3605
aF656.5
aF5.5371
aa(lp619
F0.0
aF200.5
aS'B3c'
p620
aF0.006
aF0.2981
aF0.3605
aF656.5
aF11.0739
aa(lp621
F0.0
aF370.321
aS'B3c'
p622
aF0.006
aF0.3975
aF0.4806
aF656.5
aF0.2769
aa(lp623
F0.0
aF359.572
aS'B3c'
p624
aF0.006
aF0.3975
aF0.4806
aF656.5
aF1.3841999999999999
aa(lp625
F0.0
aF346.139
aS'B3c'
p626
aF0.006
aF0.3975
aF0.4806
aF656.5
aF2.7600000000000002
aa(lp627
F0.0
aF319.574
aS'B3c'
p628
aF0.006
aF0.3975
aF0.4806
aF656.5
aF5.5371
aa(lp629
F0.0
aF272.481
aS'B3c'
p630
aF0.006
aF0.3975
aF0.4806
aF656.5
aF11.0739
aa(lp631
F1.24
aF3.384
aS'B3c'
p632
aF0.5
aF0.0
aF0.0
aF656.5
aF0.2769
aa(lp633
F7.525
aF3.226
aS'B3c'
p634
aF0.5
aF0.0
aF0.0
aF656.5
aF1.3841999999999999
aa(lp635
F14.835
aF1.648
aS'B3c'
p636
aF0.5
aF0.0
aF0.0
aF656.5
aF2.7600000000000002
aa(lp637
F26.843
aF1.605
aS'B3c'
p638
aF0.5
aF0.0
aF0.0
aF656.5
aF5.5371
aa(lp639
F52.512
aF1.811
aS'B3c'
p640
aF0.5
aF0.0
aF0.0
aF656.5
aF11.0739
aa(lp641
F0.0
aF27.844
aS'B3c'
p642
aF0.5
aF0.0497
aF0.0601
aF656.5
aF0.2769
aa(lp643
F0.0
aF22.288
aS'B3c'
p644
aF0.5
aF0.0497
aF0.0601
aF656.5
aF1.3841999999999999
aa(lp645
F0.0
aF18.364
aS'B3c'
p646
aF0.5
aF0.0497
aF0.0601
aF656.5
aF2.7600000000000002
aa(lp647
F10.188
aF14.312
aS'B3c'
p648
aF0.5
aF0.0497
aF0.0601
aF656.5
aF5.5371
aa(lp649
F33.731
aF11.13
aS'B3c'
p650
aF0.5
aF0.0497
aF0.0601
aF656.5
aF11.0739
aa(lp651
F0.0
aF70.14
aS'B3c'
p652
aF0.5
aF0.0994
aF0.1202
aF656.5
aF0.2769
aa(lp653
F0.0
aF60.862
aS'B3c'
p654
aF0.5
aF0.0994
aF0.1202
aF656.5
aF1.3841999999999999
aa(lp655
F0.0
aF49.193
aS'B3c'
p656
aF0.5
aF0.0994
aF0.1202
aF656.5
aF2.7600000000000002
aa(lp657
F3.294
aF34.933
aS'B3c'
p658
aF0.5
aF0.0994
aF0.1202
aF656.5
aF5.5371
aa(lp659
F20.977
aF27.182
aS'B3c'
p660
aF0.5
aF0.0994
aF0.1202
aF656.5
aF11.0739
aa(lp661
F0.0
aF110.098
aS'B3c'
p662
aF0.5
aF0.1491
aF0.1802
aF656.5
aF0.2769
aa(lp663
F0.0
aF100.037
aS'B3c'
p664
aF0.5
aF0.1491
aF0.1802
aF656.5
aF1.3841999999999999
aa(lp665
F0.0
aF88.897
aS'B3c'
p666
aF0.5
aF0.1491
aF0.1802
aF656.5
aF2.7600000000000002
aa(lp667
F0.0
aF72.606
aS'B3c'
p668
aF0.5
aF0.1491
aF0.1802
aF656.5
aF5.5371
aa(lp669
F13.376
aF50.073
aS'B3c'
p670
aF0.5
aF0.1491
aF0.1802
aF656.5
aF11.0739
aa(lp671
F0.0
aF150.273
aS'B3c'
p672
aF0.5
aF0.1988
aF0.2403
aF656.5
aF0.2769
aa(lp673
F0.0
aF139.886
aS'B3c'
p674
aF0.5
aF0.1988
aF0.2403
aF656.5
aF1.3841999999999999
aa(lp675
F0.0
aF127.854
aS'B3c'
p676
aF0.5
aF0.1988
aF0.2403
aF656.5
aF2.7600000000000002
aa(lp677
F0.0
aF108.316
aS'B3c'
p678
aF0.5
aF0.1988
aF0.2403
aF656.5
aF5.5371
aa(lp679
F9.132
aF84.999
aS'B3c'
p680
aF0.5
aF0.1988
aF0.2403
aF656.5
aF11.0739
aa(lp681
F0.0
aF230.766
aS'B3c'
p682
aF0.5
aF0.2981
aF0.3605
aF656.5
aF0.2769
aa(lp683
F0.0
aF220.137
aS'B3c'
p684
aF0.5
aF0.2981
aF0.3605
aF656.5
aF1.3841999999999999
aa(lp685
F0.0
aF207.331
aS'B3c'
p686
aF0.5
aF0.2981
aF0.3605
aF656.5
aF2.7600000000000002
aa(lp687
F0.0
aF184.428
aS'B3c'
p688
aF0.5
aF0.2981
aF0.3605
aF656.5
aF5.5371
aa(lp689
F4.103
aF151.586
aS'B3c'
p690
aF0.5
aF0.2981
aF0.3605
aF656.5
aF11.0739
aa(lp691
F0.0
aF300.37
aS'B3c'
p692
aF0.5
aF0.3975
aF0.4806
aF656.5
aF0.2769
aa(lp693
F0.0
aF289.682
aS'B3c'
p694
aF0.5
aF0.3975
aF0.4806
aF656.5
aF1.3841999999999999
aa(lp695
F0.0
aF276.569
aS'B3c'
p696
aF0.5
aF0.3975
aF0.4806
aF656.5
aF2.7600000000000002
aa(lp697
F0.0
aF252.256
aS'B3c'
p698
aF0.5
aF0.3975
aF0.4806
aF656.5
aF5.5371
aa(lp699
F1.562
aF213.941
aS'B3c'
p700
aF0.5
aF0.3975
aF0.4806
aF656.5
aF11.0739
aa(lp701
F9.083
aF1.532
aS'B3c'
p702
aF0.75
aF0.0
aF0.0
aF656.5
aF0.2769
aa(lp703
F15.855
aF0.0
aS'B3c'
p704
aF0.75
aF0.0
aF0.0
aF656.5
aF1.3841999999999999
aa(lp705
F21.853
aF0.0
aS'B3c'
p706
aF0.75
aF0.0
aF0.0
aF656.5
aF2.7600000000000002
aa(lp707
F33.871
aF0.0
aS'B3c'
p708
aF0.75
aF0.0
aF0.0
aF656.5
aF5.5371
aa(lp709
F59.979
aF1.728
aS'B3c'
p710
aF0.75
aF0.0
aF0.0
aF656.5
aF11.0739
aa(lp711
F0.0
aF19.672
aS'B3c'
p712
aF0.75
aF0.0497
aF0.0601
aF656.5
aF0.2769
aa(lp713
F1.285
aF16.659
aS'B3c'
p714
aF0.75
aF0.0497
aF0.0601
aF656.5
aF1.3841999999999999
aa(lp715
F6.441
aF13.81
aS'B3c'
p716
aF0.75
aF0.0497
aF0.0601
aF656.5
aF2.7600000000000002
aa(lp717
F17.147
aF10.858
aS'B3c'
p718
aF0.75
aF0.0497
aF0.0601
aF656.5
aF5.5371
aa(lp719
F41.24
aF10.005
aS'B3c'
p720
aF0.75
aF0.0497
aF0.0601
aF656.5
aF11.0739
aa(lp721
F0.0
aF53.663
aS'B3c'
p722
aF0.75
aF0.0994
aF0.1202
aF656.5
aF0.2769
aa(lp723
F0.0
aF43.337
aS'B3c'
p724
aF0.75
aF0.0994
aF0.1202
aF656.5
aF1.3841999999999999
aa(lp725
F0.0
aF34.376
aS'B3c'
p726
aF0.75
aF0.0994
aF0.1202
aF656.5
aF2.7600000000000002
aa(lp727
F7.873
aF29.803
aS'B3c'
p728
aF0.75
aF0.0994
aF0.1202
aF656.5
aF5.5371
aa(lp729
F29.005
aF24.01
aS'B3c'
p730
aF0.75
aF0.0994
aF0.1202
aF656.5
aF11.0739
aa(lp731
F0.0
aF90.308
aS'B3c'
p732
aF0.75
aF0.1491
aF0.1802
aF656.5
aF0.2769
aa(lp733
F0.0
aF81.701
aS'B3c'
p734
aF0.75
aF0.1491
aF0.1802
aF656.5
aF1.3841999999999999
aa(lp735
F0.0
aF72.861
aS'B3c'
p736
aF0.75
aF0.1491
aF0.1802
aF656.5
aF2.7600000000000002
aa(lp737
F3.707
aF60.452
aS'B3c'
p738
aF0.75
aF0.1491
aF0.1802
aF656.5
aF5.5371
aa(lp739
F20.07
aF41.234
aS'B3c'
p740
aF0.75
aF0.1491
aF0.1802
aF656.5
aF11.0739
aa(lp741
F0.0
aF127.904
aS'B3c'
p742
aF0.75
aF0.1988
aF0.2403
aF656.5
aF0.2769
aa(lp743
F0.0
aF118.457
aS'B3c'
p744
aF0.75
aF0.1988
aF0.2403
aF656.5
aF1.3841999999999999
aa(lp745
F0.0
aF108.108
aS'B3c'
p746
aF0.75
aF0.1988
aF0.2403
aF656.5
aF2.7600000000000002
aa(lp747
F1.288
aF92.296
aS'B3c'
p748
aF0.75
aF0.1988
aF0.2403
aF656.5
aF5.5371
aa(lp749
F15.23
aF73.607
aS'B3c'
p750
aF0.75
aF0.1988
aF0.2403
aF656.5
aF11.0739
aa(lp751
F0.0
aF203.93
aS'B3c'
p752
aF0.75
aF0.2981
aF0.3605
aF656.5
aF0.2769
aa(lp753
F0.0
aF193.773
aS'B3c'
p754
aF0.75
aF0.2981
aF0.3605
aF656.5
aF1.3841999999999999
aa(lp755
F0.0
aF181.913
aS'B3c'
p756
aF0.75
aF0.2981
aF0.3605
aF656.5
aF2.7600000000000002
aa(lp757
F0.0
aF161.637
aS'B3c'
p758
aF0.75
aF0.2981
aF0.3605
aF656.5
aF5.5371
aa(lp759
F8.112
aF134.031
aS'B3c'
p760
aF0.75
aF0.2981
aF0.3605
aF656.5
aF11.0739
aa(lp761
F0.0
aF271.019
aS'B3c'
p762
aF0.75
aF0.3975
aF0.4806
aF656.5
aF0.2769
aa(lp763
F0.0
aF260.563
aS'B3c'
p764
aF0.75
aF0.3975
aF0.4806
aF656.5
aF1.3841999999999999
aa(lp765
F0.0
aF248.083
aS'B3c'
p766
aF0.75
aF0.3975
aF0.4806
aF656.5
aF2.7600000000000002
aa(lp767
F0.0
aF225.74
aS'B3c'
p768
aF0.75
aF0.3975
aF0.4806
aF656.5
aF5.5371
aa(lp769
F4.332
aF192.031
aS'B3c'
p770
aF0.75
aF0.3975
aF0.4806
aF656.5
aF11.0739
aa(lp771
F17.353
aF0.0
aS'B3c'
p772
aF1.0
aF0.0
aF0.0
aF656.5
aF0.2769
aa(lp773
F22.151
aF0.0
aS'B3c'
p774
aF1.0
aF0.0
aF0.0
aF656.5
aF1.3841999999999999
aa(lp775
F28.16
aF0.0
aS'B3c'
p776
aF1.0
aF0.0
aF0.0
aF656.5
aF2.7600000000000002
aa(lp777
F41.444
aF0.0
aS'B3c'
p778
aF1.0
aF0.0
aF0.0
aF656.5
aF5.5371
aa(lp779
F68.101
aF1.668
aS'B3c'
p780
aF1.0
aF0.0
aF0.0
aF656.5
aF11.0739
aa(lp781
F3.175
aF15.0
aS'B3c'
p782
aF1.0
aF0.0497
aF0.0601
aF656.5
aF0.2769
aa(lp783
F6.835
aF12.671
aS'B3c'
p784
aF1.0
aF0.0497
aF0.0601
aF656.5
aF1.3841999999999999
aa(lp785
F11.764
aF10.374
aS'B3c'
p786
aF1.0
aF0.0497
aF0.0601
aF656.5
aF2.7600000000000002
aa(lp787
F24.702
aF9.641
aS'B3c'
p788
aF1.0
aF0.0497
aF0.0601
aF656.5
aF5.5371
aa(lp789
F48.089
aF7.944
aS'B3c'
p790
aF1.0
aF0.0497
aF0.0601
aF656.5
aF11.0739
aa(lp791
F0.0
aF39.095
aS'B3c'
p792
aF1.0
aF0.0994
aF0.1202
aF656.5
aF0.2769
aa(lp793
F0.0
aF31.908
aS'B3c'
p794
aF1.0
aF0.0994
aF0.1202
aF656.5
aF1.3841999999999999
aa(lp795
F5.501
aF29.436
aS'B3c'
p796
aF1.0
aF0.0994
aF0.1202
aF656.5
aF2.7600000000000002
aa(lp797
F14.188
aF24.701
aS'B3c'
p798
aF1.0
aF0.0994
aF0.1202
aF656.5
aF5.5371
aa(lp799
F35.649
aF21.4
aS'B3c'
p800
aF1.0
aF0.0994
aF0.1202
aF656.5
aF11.0739
aa(lp801
F0.0
aF74.543
aS'B3c'
p802
aF1.0
aF0.1491
aF0.1802
aF656.5
aF0.2769
aa(lp803
F0.0
aF67.694
aS'B3c'
p804
aF1.0
aF0.1491
aF0.1802
aF656.5
aF1.3841999999999999
aa(lp805
F1.204
aF60.862
aS'B3c'
p806
aF1.0
aF0.1491
aF0.1802
aF656.5
aF2.7600000000000002
aa(lp807
F7.918
aF44.983
aS'B3c'
p808
aF1.0
aF0.1491
aF0.1802
aF656.5
aF5.5371
aa(lp809
F26.977
aF36.835
aS'B3c'
p810
aF1.0
aF0.1491
aF0.1802
aF656.5
aF11.0739
aa(lp811
F0.0
aF109.171
aS'B3c'
p812
aF1.0
aF0.1988
aF0.2403
aF656.5
aF0.2769
aa(lp813
F0.0
aF101.08
aS'B3c'
p814
aF1.0
aF0.1988
aF0.2403
aF656.5
aF1.3841999999999999
aa(lp815
F0.0
aF92.527
aS'B3c'
p816
aF1.0
aF0.1988
aF0.2403
aF656.5
aF2.7600000000000002
aa(lp817
F5.535
aF79.699
aS'B3c'
p818
aF1.0
aF0.1988
aF0.2403
aF656.5
aF5.5371
aa(lp819
F20.156
aF64.53
aS'B3c'
p820
aF1.0
aF0.1988
aF0.2403
aF656.5
aF11.0739
aa(lp821
F0.0
aF180.498
aS'B3c'
p822
aF1.0
aF0.2981
aF0.3605
aF656.5
aF0.2769
aa(lp823
F0.0
aF171.113
aS'B3c'
p824
aF1.0
aF0.2981
aF0.3605
aF656.5
aF1.3841999999999999
aa(lp825
F0.0
aF160.503
aS'B3c'
p826
aF1.0
aF0.2981
aF0.3605
aF656.5
aF2.7600000000000002
aa(lp827
F1.257
aF143.045
aS'B3c'
p828
aF1.0
aF0.2981
aF0.3605
aF656.5
aF5.5371
aa(lp829
F11.202
aF119.519
aS'B3c'
p830
aF1.0
aF0.2981
aF0.3605
aF656.5
aF11.0739
aa(lp831
F0.0
aF244.96
aS'B3c'
p832
aF1.0
aF0.3975
aF0.4806
aF656.5
aF0.2769
aa(lp833
F0.0
aF235.063
aS'B3c'
p834
aF1.0
aF0.3975
aF0.4806
aF656.5
aF1.3841999999999999
aa(lp835
F0.0
aF223.459
aS'B3c'
p836
aF1.0
aF0.3975
aF0.4806
aF656.5
aF2.7600000000000002
aa(lp837
F0.0
aF203.258
aS'B3c'
p838
aF1.0
aF0.3975
aF0.4806
aF656.5
aF5.5371
aa(lp839
F8.065
aF173.886
aS'B3c'
p840
aF1.0
aF0.3975
aF0.4806
aF656.5
aF11.0739
aa(lp841
F23.042
aF0.0
aS'B3c'
p842
aF1.25
aF0.0
aF0.0
aF656.5
aF0.2769
aa(lp843
F27.849
aF0.0
aS'B3c'
p844
aF1.25
aF0.0
aF0.0
aF656.5
aF1.3841999999999999
aa(lp845
F33.863
aF0.0
aS'B3c'
p846
aF1.25
aF0.0
aF0.0
aF656.5
aF2.7600000000000002
aa(lp847
F47.497
aF0.0
aS'B3c'
p848
aF1.25
aF0.0
aF0.0
aF656.5
aF5.5371
aa(lp849
F74.454
aF1.625
aS'B3c'
p850
aF1.25
aF0.0
aF0.0
aF656.5
aF11.0739
aa(lp851
F7.532
aF11.561
aS'B3c'
p852
aF1.25
aF0.0497
aF0.0601
aF656.5
aF0.2769
aa(lp853
F13.107
aF9.622
aS'B3c'
p854
aF1.25
aF0.0497
aF0.0601
aF656.5
aF1.3841999999999999
aa(lp855
F19.333
aF9.205
aS'B3c'
p856
aF1.25
aF0.0497
aF0.0601
aF656.5
aF2.7600000000000002
aa(lp857
F30.726
aF7.32
aS'B3c'
p858
aF1.25
aF0.0497
aF0.0601
aF656.5
aF5.5371
aa(lp859
F55.673
aF7.476
aS'B3c'
p860
aF1.25
aF0.0497
aF0.0601
aF656.5
aF11.0739
aa(lp861
F2.715
aF29.432
aS'B3c'
p862
aF1.25
aF0.0994
aF0.1202
aF656.5
aF0.2769
aa(lp863
F5.717
aF27.472
aS'B3c'
p864
aF1.25
aF0.0994
aF0.1202
aF656.5
aF1.3841999999999999
aa(lp865
F8.561
aF24.203
aS'B3c'
p866
aF1.25
aF0.0994
aF0.1202
aF656.5
aF2.7600000000000002
aa(lp867
F19.119
aF21.882
aS'B3c'
p868
aF1.25
aF0.0994
aF0.1202
aF656.5
aF5.5371
aa(lp869
F41.852
aF17.938
aS'B3c'
p870
aF1.25
aF0.0994
aF0.1202
aF656.5
aF11.0739
aa(lp871
F0.0
aF62.465
aS'B3c'
p872
aF1.25
aF0.1491
aF0.1802
aF656.5
aF0.2769
aa(lp873
F2.52
aF57.063
aS'B3c'
p874
aF1.25
aF0.1491
aF0.1802
aF656.5
aF1.3841999999999999
aa(lp875
F5.608
aF47.698
aS'B3c'
p876
aF1.25
aF0.1491
aF0.1802
aF656.5
aF2.7600000000000002
aa(lp877
F12.254
aF39.852
aS'B3c'
p878
aF1.25
aF0.1491
aF0.1802
aF656.5
aF5.5371
aa(lp879
F32.888
aF31.888
aS'B3c'
p880
aF1.25
aF0.1491
aF0.1802
aF656.5
aF11.0739
aa(lp881
F0.0
aF93.959
aS'B3c'
p882
aF1.25
aF0.1988
aF0.2403
aF656.5
aF0.2769
aa(lp883
F0.0
aF87.201
aS'B3c'
p884
aF1.25
aF0.1988
aF0.2403
aF656.5
aF1.3841999999999999
aa(lp885
F2.843
aF80.155
aS'B3c'
p886
aF1.25
aF0.1988
aF0.2403
aF656.5
aF2.7600000000000002
aa(lp887
F8.354
aF69.697
aS'B3c'
p888
aF1.25
aF0.1988
aF0.2403
aF656.5
aF5.5371
aa(lp889
F26.324
aF50.475
aS'B3c'
p890
aF1.25
aF0.1988
aF0.2403
aF656.5
aF11.0739
aa(lp891
F0.0
aF160.345
aS'B3c'
p892
aF1.25
aF0.2981
aF0.3605
aF656.5
aF0.2769
aa(lp893
F0.0
aF151.97
aS'B3c'
p894
aF1.25
aF0.2981
aF0.3605
aF656.5
aF1.3841999999999999
aa(lp895
F0.0
aF142.667
aS'B3c'
p896
aF1.25
aF0.2981
aF0.3605
aF656.5
aF2.7600000000000002
aa(lp897
F3.763
aF127.604
aS'B3c'
p898
aF1.25
aF0.2981
aF0.3605
aF656.5
aF5.5371
aa(lp899
F17.265
aF107.367
aS'B3c'
p900
aF1.25
aF0.2981
aF0.3605
aF656.5
aF11.0739
aa(lp901
F0.0
aF222.119
aS'B3c'
p902
aF1.25
aF0.3975
aF0.4806
aF656.5
aF0.2769
aa(lp903
F0.0
aF212.898
aS'B3c'
p904
aF1.25
aF0.3975
aF0.4806
aF656.5
aF1.3841999999999999
aa(lp905
F0.0
aF202.348
aS'B3c'
p906
aF1.25
aF0.3975
aF0.4806
aF656.5
aF2.7600000000000002
aa(lp907
F1.352
aF184.35
aS'B3c'
p908
aF1.25
aF0.3975
aF0.4806
aF656.5
aF5.5371
aa(lp909
F10.798
aF158.527
aS'B3c'
p910
aF1.25
aF0.3975
aF0.4806
aF656.5
aF11.0739
aa(lp911
F28.218
aF0.0
aS'B3c'
p912
aF1.5
aF0.0
aF0.0
aF656.5
aF0.2769
aa(lp913
F33.029
aF0.0
aS'B3c'
p914
aF1.5
aF0.0
aF0.0
aF656.5
aF1.3841999999999999
aa(lp915
F40.381
aF0.0
aS'B3c'
p916
aF1.5
aF0.0
aF0.0
aF656.5
aF2.7600000000000002
aa(lp917
F53.005
aF0.0
aS'B3c'
p918
aF1.5
aF0.0
aF0.0
aF656.5
aF5.5371
aa(lp919
F80.234
aF1.593
aS'B3c'
p920
aF1.5
aF0.0
aF0.0
aF656.5
aF11.0739
aa(lp921
F13.819
aF8.902
aS'B3c'
p922
aF1.5
aF0.0497
aF0.0601
aF656.5
aF0.2769
aa(lp923
F19.104
aF8.565
aS'B3c'
p924
aF1.5
aF0.0497
aF0.0601
aF656.5
aF1.3841999999999999
aa(lp925
F24.71
aF6.887
aS'B3c'
p926
aF1.5
aF0.0497
aF0.0601
aF656.5
aF2.7600000000000002
aa(lp927
F36.302
aF6.81
aS'B3c'
p928
aF1.5
aF0.0497
aF0.0601
aF656.5
aF5.5371
aa(lp929
F61.699
aF7.089
aS'B3c'
p930
aF1.5
aF0.0497
aF0.0601
aF656.5
aF11.0739
aa(lp931
F6.263
aF25.467
aS'B3c'
p932
aF1.5
aF0.0994
aF0.1202
aF656.5
aF0.2769
aa(lp933
F8.521
aF22.746
aS'B3c'
p934
aF1.5
aF0.0994
aF0.1202
aF656.5
aF1.3841999999999999
aa(lp935
F14.644
aF21.466
aS'B3c'
p936
aF1.5
aF0.0994
aF0.1202
aF656.5
aF2.7600000000000002
aa(lp937
F25.465
aF19.522
aS'B3c'
p938
aF1.5
aF0.0994
aF0.1202
aF656.5
aF5.5371
aa(lp939
F47.657
aF14.932
aS'B3c'
p940
aF1.5
aF0.0994
aF0.1202
aF656.5
aF11.0739
aa(lp941
F2.895
aF51.703
aS'B3c'
p942
aF1.5
aF0.1491
aF0.1802
aF656.5
aF0.2769
aa(lp943
F5.688
aF42.226
aS'B3c'
p944
aF1.5
aF0.1491
aF0.1802
aF656.5
aF1.3841999999999999
aa(lp945
F8.275
aF39.613
aS'B3c'
p946
aF1.5
aF0.1491
aF0.1802
aF656.5
aF2.7600000000000002
aa(lp947
F17.707
aF34.352
aS'B3c'
p948
aF1.5
aF0.1491
aF0.1802
aF656.5
aF5.5371
aa(lp949
F38.508
aF29.157
aS'B3c'
p950
aF1.5
aF0.1491
aF0.1802
aF656.5
aF11.0739
aa(lp951
F0.0
aF81.681
aS'B3c'
p952
aF1.5
aF0.1988
aF0.2403
aF656.5
aF0.2769
aa(lp953
F2.936
aF76.035
aS'B3c'
p954
aF1.5
aF0.1988
aF0.2403
aF656.5
aF1.3841999999999999
aa(lp955
F6.031
aF70.229
aS'B3c'
p956
aF1.5
aF0.1988
aF0.2403
aF656.5
aF2.7600000000000002
aa(lp957
F12.334
aF61.523
aS'B3c'
p958
aF1.5
aF0.1988
aF0.2403
aF656.5
aF5.5371
aa(lp959
F31.61
aF45.974
aS'B3c'
p960
aF1.5
aF0.1988
aF0.2403
aF656.5
aF11.0739
aa(lp961
F0.0
aF143.261
aS'B3c'
p962
aF1.5
aF0.2981
aF0.3605
aF656.5
aF0.2769
aa(lp963
F0.0
aF135.853
aS'B3c'
p964
aF1.5
aF0.2981
aF0.3605
aF656.5
aF1.3841999999999999
aa(lp965
F1.36
aF127.749
aS'B3c'
p966
aF1.5
aF0.2981
aF0.3605
aF656.5
aF2.7600000000000002
aa(lp967
F7.163
aF114.66
aS'B3c'
p968
aF1.5
aF0.2981
aF0.3605
aF656.5
aF5.5371
aa(lp969
F21.511
aF97.095
aS'B3c'
p970
aF1.5
aF0.2981
aF0.3605
aF656.5
aF11.0739
aa(lp971
F0.0
aF202.205
aS'B3c'
p972
aF1.5
aF0.3975
aF0.4806
aF656.5
aF0.2769
aa(lp973
F0.0
aF193.816
aS'B3c'
p974
aF1.5
aF0.3975
aF0.4806
aF656.5
aF1.3841999999999999
aa(lp975
F0.0
aF184.311
aS'B3c'
p976
aF1.5
aF0.3975
aF0.4806
aF656.5
aF2.7600000000000002
aa(lp977
F3.737
aF168.305
aS'B3c'
p978
aF1.5
aF0.3975
aF0.4806
aF656.5
aF5.5371
aa(lp979
F16.255
aF145.273
aS'B3c'
p980
aF1.5
aF0.3975
aF0.4806
aF656.5
aF11.0739
aa(lp981
F42.885
aF0.0
aS'B3c'
p982
aF2.25
aF0.0
aF0.0
aF656.5
aF0.2769
aa(lp983
F47.935
aF0.0
aS'B3c'
p984
aF2.25
aF0.0
aF0.0
aF656.5
aF1.3841999999999999
aa(lp985
F55.458
aF0.0
aS'B3c'
p986
aF2.25
aF0.0
aF0.0
aF656.5
aF2.7600000000000002
aa(lp987
F68.561
aF0.0
aS'B3c'
p988
aF2.25
aF0.0
aF0.0
aF656.5
aF5.5371
aa(lp989
F94.816
aF1.546
aS'B3c'
p990
aF2.25
aF0.0
aF0.0
aF656.5
aF11.0739
aa(lp991
F28.248
aF5.63
aS'B3c'
p992
aF2.25
aF0.0497
aF0.0601
aF656.5
aF0.2769
aa(lp993
F32.89
aF5.6
aS'B3c'
p994
aF2.25
aF0.0497
aF0.0601
aF656.5
aF1.3841999999999999
aa(lp995
F38.764
aF5.603
aS'B3c'
p996
aF2.25
aF0.0497
aF0.0601
aF656.5
aF2.7600000000000002
aa(lp997
F52.068
aF5.727
aS'B3c'
p998
aF2.25
aF0.0497
aF0.0601
aF656.5
aF5.5371
aa(lp999
F78.642
aF6.267
aS'B3c'
p1000
aF2.25
aF0.0497
aF0.0601
aF656.5
aF11.0739
aa(lp1001
F19.381
aF15.557
aS'B3c'
p1002
aF2.25
aF0.0994
aF0.1202
aF656.5
aF0.2769
aa(lp1003
F23.425
aF15.0
aS'B3c'
p1004
aF2.25
aF0.0994
aF0.1202
aF656.5
aF1.3841999999999999
aa(lp1005
F28.711
aF12.953
aS'B3c'
p1006
aF2.25
aF0.0994
aF0.1202
aF656.5
aF2.7600000000000002
aa(lp1007
F39.74
aF12.542
aS'B3c'
p1008
aF2.25
aF0.0994
aF0.1202
aF656.5
aF5.5371
aa(lp1009
F64.376
aF12.328
aS'B3c'
p1010
aF2.25
aF0.0994
aF0.1202
aF656.5
aF11.0739
aa(lp1011
F13.408
aF30.626
aS'B3c'
p1012
aF2.25
aF0.1491
aF0.1802
aF656.5
aF0.2769
aa(lp1013
F16.543
aF27.858
aS'B3c'
p1014
aF2.25
aF0.1491
aF0.1802
aF656.5
aF1.3841999999999999
aa(lp1015
F21.983
aF26.75
aS'B3c'
p1016
aF2.25
aF0.1491
aF0.1802
aF656.5
aF2.7600000000000002
aa(lp1017
F31.873
aF25.001
aS'B3c'
p1018
aF2.25
aF0.1491
aF0.1802
aF656.5
aF5.5371
aa(lp1019
F53.398
aF22.988
aS'B3c'
p1020
aF2.25
aF0.1491
aF0.1802
aF656.5
aF11.0739
aa(lp1021
F8.398
aF56.605
aS'B3c'
p1022
aF2.25
aF0.1988
aF0.2403
aF656.5
aF0.2769
aa(lp1023
F12.972
aF50.463
aS'B3c'
p1024
aF2.25
aF0.1988
aF0.2403
aF656.5
aF1.3841999999999999
aa(lp1025
F16.652
aF43.511
aS'B3c'
p1026
aF2.25
aF0.1988
aF0.2403
aF656.5
aF2.7600000000000002
aa(lp1027
F26.197
aF40.069
aS'B3c'
p1028
aF2.25
aF0.1988
aF0.2403
aF656.5
aF5.5371
aa(lp1029
F46.175
aF33.469
aS'B3c'
p1030
aF2.25
aF0.1988
aF0.2403
aF656.5
aF11.0739
aa(lp1031
F5.318
aF105.665
aS'B3c'
p1032
aF2.25
aF0.2981
aF0.3605
aF656.5
aF0.2769
aa(lp1033
F6.983
aF100.562
aS'B3c'
p1034
aF2.25
aF0.2981
aF0.3605
aF656.5
aF1.3841999999999999
aa(lp1035
F9.272
aF95.032
aS'B3c'
p1036
aF2.25
aF0.2981
aF0.3605
aF656.5
aF2.7600000000000002
aa(lp1037
F17.882
aF86.127
aS'B3c'
p1038
aF2.25
aF0.2981
aF0.3605
aF656.5
aF5.5371
aa(lp1039
F35.58
aF73.973
aS'B3c'
p1040
aF2.25
aF0.2981
aF0.3605
aF656.5
aF11.0739
aa(lp1041
F2.749
aF156.85
aS'B3c'
p1042
aF2.25
aF0.3975
aF0.4806
aF656.5
aF0.2769
aa(lp1043
F3.72
aF150.619
aS'B3c'
p1044
aF2.25
aF0.3975
aF0.4806
aF656.5
aF1.3841999999999999
aa(lp1045
F6.704
aF143.644
aS'B3c'
p1046
aF2.25
aF0.3975
aF0.4806
aF656.5
aF2.7600000000000002
aa(lp1047
F11.089
aF131.936
aS'B3c'
p1048
aF2.25
aF0.3975
aF0.4806
aF656.5
aF5.5371
aa(lp1049
F28.606
aF114.991
aS'B3c'
p1050
aF2.25
aF0.3975
aF0.4806
aF656.5
aF11.0739
aa(lp1051
F59.504
aF0.0
aS'B3c'
p1052
aF3.45
aF0.0
aF0.0
aF656.5
aF0.2769
aa(lp1053
F64.748
aF0.0
aS'B3c'
p1054
aF3.45
aF0.0
aF0.0
aF656.5
aF1.3841999999999999
aa(lp1055
F71.306
aF0.0
aS'B3c'
p1056
aF3.45
aF0.0
aF0.0
aF656.5
aF2.7600000000000002
aa(lp1057
F84.439
aF0.0
aS'B3c'
p1058
aF3.45
aF0.0
aF0.0
aF656.5
aF5.5371
aa(lp1059
F110.739
aF1.53
aS'B3c'
p1060
aF3.45
aF0.0
aF0.0
aF656.5
aF11.0739
aa(lp1061
F45.357
aF4.303
aS'B3c'
p1062
aF3.45
aF0.0497
aF0.0601
aF656.5
aF0.2769
aa(lp1063
F50.346
aF4.369
aS'B3c'
p1064
aF3.45
aF0.0497
aF0.0601
aF656.5
aF1.3841999999999999
aa(lp1065
F56.615
aF4.48
aS'B3c'
p1066
aF3.45
aF0.0497
aF0.0601
aF656.5
aF2.7600000000000002
aa(lp1067
F70.627
aF4.77
aS'B3c'
p1068
aF3.45
aF0.0497
aF0.0601
aF656.5
aF5.5371
aa(lp1069
F96.816
aF5.506
aS'B3c'
p1070
aF3.45
aF0.0497
aF0.0601
aF656.5
aF11.0739
aa(lp1071
F34.684
aF9.788
aS'B3c'
p1072
aF3.45
aF0.0994
aF0.1202
aF656.5
aF0.2769
aa(lp1073
F39.163
aF9.662
aS'B3c'
p1074
aF3.45
aF0.0994
aF0.1202
aF656.5
aF1.3841999999999999
aa(lp1075
F44.859
aF8.155
aS'B3c'
p1076
aF3.45
aF0.0994
aF0.1202
aF656.5
aF2.7600000000000002
aa(lp1077
F58.062
aF8.289
aS'B3c'
p1078
aF3.45
aF0.0994
aF0.1202
aF656.5
aF5.5371
aa(lp1079
F84.479
aF8.801
aS'B3c'
p1080
aF3.45
aF0.0994
aF0.1202
aF656.5
aF11.0739
aa(lp1081
F28.178
aF19.867
aS'B3c'
p1082
aF3.45
aF0.1491
aF0.1802
aF656.5
aF0.2769
aa(lp1083
F32.216
aF19.274
aS'B3c'
p1084
aF3.45
aF0.1491
aF0.1802
aF656.5
aF1.3841999999999999
aa(lp1085
F37.451
aF18.67
aS'B3c'
p1086
aF3.45
aF0.1491
aF0.1802
aF656.5
aF2.7600000000000002
aa(lp1087
F48.315
aF15.034
aS'B3c'
p1088
aF3.45
aF0.1491
aF0.1802
aF656.5
aF5.5371
aa(lp1089
F74.388
aF14.931
aS'B3c'
p1090
aF3.45
aF0.1491
aF0.1802
aF656.5
aF11.0739
aa(lp1091
F23.658
aF29.585
aS'B3c'
p1092
aF3.45
aF0.1988
aF0.2403
aF656.5
aF0.2769
aa(lp1093
F27.279
aF28.801
aS'B3c'
p1094
aF3.45
aF0.1988
aF0.2403
aF656.5
aF1.3841999999999999
aa(lp1095
F32.024
aF27.947
aS'B3c'
p1096
aF3.45
aF0.1988
aF0.2403
aF656.5
aF2.7600000000000002
aa(lp1097
F42.133
aF26.615
aS'B3c'
p1098
aF3.45
aF0.1988
aF0.2403
aF656.5
aF5.5371
aa(lp1099
F65.242
aF25.039
aS'B3c'
p1100
aF3.45
aF0.1988
aF0.2403
aF656.5
aF11.0739
aa(lp1101
F16.693
aF71.452
aS'B3c'
p1102
aF3.45
aF0.2981
aF0.3605
aF656.5
aF0.2769
aa(lp1103
F19.489
aF68.269
aS'B3c'
p1104
aF3.45
aF0.2981
aF0.3605
aF656.5
aF1.3841999999999999
aa(lp1105
F24.679
aF64.822
aS'B3c'
p1106
aF3.45
aF0.2981
aF0.3605
aF656.5
aF2.7600000000000002
aa(lp1107
F33.324
aF58.072
aS'B3c'
p1108
aF3.45
aF0.2981
aF0.3605
aF656.5
aF5.5371
aa(lp1109
F52.618
aF46.876
aS'B3c'
p1110
aF3.45
aF0.2981
aF0.3605
aF656.5
aF11.0739
aa(lp1111
F12.857
aF113.537
aS'B3c'
p1112
aF3.45
aF0.3975
aF0.4806
aF656.5
aF0.2769
aa(lp1113
F15.279
aF109.247
aS'B3c'
p1114
aF3.45
aF0.3975
aF0.4806
aF656.5
aF1.3841999999999999
aa(lp1115
F18.518
aF104.46
aS'B3c'
p1116
aF3.45
aF0.3975
aF0.4806
aF656.5
aF2.7600000000000002
aa(lp1117
F27.107
aF96.406
aS'B3c'
p1118
aF3.45
aF0.3975
aF0.4806
aF656.5
aF5.5371
aa(lp1119
F44.394
aF84.832
aS'B3c'
p1120
aF3.45
aF0.3975
aF0.4806
aF656.5
aF11.0739
aa(lp1121
F0.0
aF25.24
aS'B3c'
p1122
aF0.006
aF0.0
aF0.0
aF1196.5
aF0.2769
aa(lp1123
F0.0
aF8.138
aS'B3c'
p1124
aF0.006
aF0.0
aF0.0
aF1196.5
aF1.3841999999999999
aa(lp1125
F0.0
aF4.345
aS'B3c'
p1126
aF0.006
aF0.0
aF0.0
aF1196.5
aF2.7600000000000002
aa(lp1127
F8.679
aF3.926
aS'B3c'
p1128
aF0.006
aF0.0
aF0.0
aF1196.5
aF5.5371
aa(lp1129
F33.99
aF3.641
aS'B3c'
p1130
aF0.006
aF0.0
aF0.0
aF1196.5
aF11.0739
aa(lp1131
F0.0
aF70.509
aS'B3c'
p1132
aF0.006
aF0.0497
aF0.0601
aF1196.5
aF0.2769
aa(lp1133
F0.0
aF59.717
aS'B3c'
p1134
aF0.006
aF0.0497
aF0.0601
aF1196.5
aF1.3841999999999999
aa(lp1135
F0.0
aF46.461
aS'B3c'
p1136
aF0.006
aF0.0497
aF0.0601
aF1196.5
aF2.7600000000000002
aa(lp1137
F0.0
aF25.461
aS'B3c'
p1138
aF0.006
aF0.0497
aF0.0601
aF1196.5
aF5.5371
aa(lp1139
F13.82
aF16.274
aS'B3c'
p1140
aF0.006
aF0.0497
aF0.0601
aF1196.5
aF11.0739
aa(lp1141
F0.0
aF116.039
aS'B3c'
p1142
aF0.006
aF0.0994
aF0.1202
aF1196.5
aF0.2769
aa(lp1143
F0.0
aF105.256
aS'B3c'
p1144
aF0.006
aF0.0994
aF0.1202
aF1196.5
aF1.3841999999999999
aa(lp1145
F0.0
aF91.817
aS'B3c'
p1146
aF0.006
aF0.0994
aF0.1202
aF1196.5
aF2.7600000000000002
aa(lp1147
F0.0
aF67.726
aS'B3c'
p1148
aF0.006
aF0.0994
aF0.1202
aF1196.5
aF5.5371
aa(lp1149
F5.669
aF38.435
aS'B3c'
p1150
aF0.006
aF0.0994
aF0.1202
aF1196.5
aF11.0739
aa(lp1151
F0.0
aF161.567
aS'B3c'
p1152
aF0.006
aF0.1491
aF0.1802
aF1196.5
aF0.2769
aa(lp1153
F0.0
aF150.784
aS'B3c'
p1154
aF0.006
aF0.1491
aF0.1802
aF1196.5
aF1.3841999999999999
aa(lp1155
F0.0
aF137.319
aS'B3c'
p1156
aF0.006
aF0.1491
aF0.1802
aF1196.5
aF2.7600000000000002
aa(lp1157
F0.0
aF111.669
aS'B3c'
p1158
aF0.006
aF0.1491
aF0.1802
aF1196.5
aF5.5371
aa(lp1159
F0.0
aF76.914
aS'B3c'
p1160
aF0.006
aF0.1491
aF0.1802
aF1196.5
aF11.0739
aa(lp1161
F0.0
aF207.095
aS'B3c'
p1162
aF0.006
aF0.1988
aF0.2403
aF1196.5
aF0.2769
aa(lp1163
F0.0
aF196.313
aS'B3c'
p1164
aF0.006
aF0.1988
aF0.2403
aF1196.5
aF1.3841999999999999
aa(lp1165
F0.0
aF182.838
aS'B3c'
p1166
aF0.006
aF0.1988
aF0.2403
aF1196.5
aF2.7600000000000002
aa(lp1167
F0.0
aF156.56
aS'B3c'
p1168
aF0.006
aF0.1988
aF0.2403
aF1196.5
aF5.5371
aa(lp1169
F0.0
aF115.497
aS'B3c'
p1170
aF0.006
aF0.1988
aF0.2403
aF1196.5
aF11.0739
aa(lp1171
F0.0
aF298.147
aS'B3c'
p1172
aF0.006
aF0.2981
aF0.3605
aF1196.5
aF0.2769
aa(lp1173
F0.0
aF287.366
aS'B3c'
p1174
aF0.006
aF0.2981
aF0.3605
aF1196.5
aF1.3841999999999999
aa(lp1175
F0.0
aF273.889
aS'B3c'
p1176
aF0.006
aF0.2981
aF0.3605
aF1196.5
aF2.7600000000000002
aa(lp1177
F0.0
aF247.153
aS'B3c'
p1178
aF0.006
aF0.2981
aF0.3605
aF1196.5
aF5.5371
aa(lp1179
F0.0
aF199.663
aS'B3c'
p1180
aF0.006
aF0.2981
aF0.3605
aF1196.5
aF11.0739
aa(lp1181
F0.0
aF375.87
aS'B3c'
p1182
aF0.006
aF0.3975
aF0.4806
aF1196.5
aF0.2769
aa(lp1183
F0.0
aF365.089
aS'B3c'
p1184
aF0.006
aF0.3975
aF0.4806
aF1196.5
aF1.3841999999999999
aa(lp1185
F0.0
aF351.612
aS'B3c'
p1186
aF0.006
aF0.3975
aF0.4806
aF1196.5
aF2.7600000000000002
aa(lp1187
F0.0
aF324.751
aS'B3c'
p1188
aF0.006
aF0.3975
aF0.4806
aF1196.5
aF5.5371
aa(lp1189
F0.0
aF274.691
aS'B3c'
p1190
aF0.006
aF0.3975
aF0.4806
aF1196.5
aF11.0739
aa(lp1191
F1.211
aF3.352
aS'B3c'
p1192
aF0.5
aF0.0
aF0.0
aF1196.5
aF0.2769
aa(lp1193
F7.527
aF1.711
aS'B3c'
p1194
aF0.5
aF0.0
aF0.0
aF1196.5
aF1.3841999999999999
aa(lp1195
F14.747
aF1.63
aS'B3c'
p1196
aF0.5
aF0.0
aF0.0
aF1196.5
aF2.7600000000000002
aa(lp1197
F26.854
aF1.555
aS'B3c'
p1198
aF0.5
aF0.0
aF0.0
aF1196.5
aF5.5371
aa(lp1199
F52.459
aF1.699
aS'B3c'
p1200
aF0.5
aF0.0
aF0.0
aF1196.5
aF11.0739
aa(lp1201
F0.0
aF28.426
aS'B3c'
p1202
aF0.5
aF0.0497
aF0.0601
aF1196.5
aF0.2769
aa(lp1203
F0.0
aF22.739
aS'B3c'
p1204
aF0.5
aF0.0497
aF0.0601
aF1196.5
aF1.3841999999999999
aa(lp1205
F0.0
aF18.739
aS'B3c'
p1206
aF0.5
aF0.0497
aF0.0601
aF1196.5
aF2.7600000000000002
aa(lp1207
F8.396
aF14.483
aS'B3c'
p1208
aF0.5
aF0.0497
aF0.0601
aF1196.5
aF5.5371
aa(lp1209
F32.418
aF11.043
aS'B3c'
p1210
aF0.5
aF0.0497
aF0.0601
aF1196.5
aF11.0739
aa(lp1211
F0.0
aF71.988
aS'B3c'
p1212
aF0.5
aF0.0994
aF0.1202
aF1196.5
aF0.2769
aa(lp1213
F0.0
aF62.09
aS'B3c'
p1214
aF0.5
aF0.0994
aF0.1202
aF1196.5
aF1.3841999999999999
aa(lp1215
F0.0
aF48.727
aS'B3c'
p1216
aF0.5
aF0.0994
aF0.1202
aF1196.5
aF2.7600000000000002
aa(lp1217
F0.0
aF35.632
aS'B3c'
p1218
aF0.5
aF0.0994
aF0.1202
aF1196.5
aF5.5371
aa(lp1219
F18.142
aF27.247
aS'B3c'
p1220
aF0.5
aF0.0994
aF0.1202
aF1196.5
aF11.0739
aa(lp1221
F0.0
aF113.433
aS'B3c'
p1222
aF0.5
aF0.1491
aF0.1802
aF1196.5
aF0.2769
aa(lp1223
F0.0
aF102.955
aS'B3c'
p1224
aF0.5
aF0.1491
aF0.1802
aF1196.5
aF1.3841999999999999
aa(lp1225
F0.0
aF90.881
aS'B3c'
p1226
aF0.5
aF0.1491
aF0.1802
aF1196.5
aF2.7600000000000002
aa(lp1227
F0.0
aF72.328
aS'B3c'
p1228
aF0.5
aF0.1491
aF0.1802
aF1196.5
aF5.5371
aa(lp1229
F9.609
aF47.125
aS'B3c'
p1230
aF0.5
aF0.1491
aF0.1802
aF1196.5
aF11.0739
aa(lp1231
F0.0
aF154.992
aS'B3c'
p1232
aF0.5
aF0.1988
aF0.2403
aF1196.5
aF0.2769
aa(lp1233
F0.0
aF144.343
aS'B3c'
p1234
aF0.5
aF0.1988
aF0.2403
aF1196.5
aF1.3841999999999999
aa(lp1235
F0.0
aF131.582
aS'B3c'
p1236
aF0.5
aF0.1988
aF0.2403
aF1196.5
aF2.7600000000000002
aa(lp1237
F0.0
aF109.674
aS'B3c'
p1238
aF0.5
aF0.1988
aF0.2403
aF1196.5
aF5.5371
aa(lp1239
F6.144
aF82.928
aS'B3c'
p1240
aF0.5
aF0.1988
aF0.2403
aF1196.5
aF11.0739
aa(lp1241
F0.0
aF238.175
aS'B3c'
p1242
aF0.5
aF0.2981
aF0.3605
aF1196.5
aF0.2769
aa(lp1243
F0.0
aF227.429
aS'B3c'
p1244
aF0.5
aF0.2981
aF0.3605
aF1196.5
aF1.3841999999999999
aa(lp1245
F0.0
aF214.185
aS'B3c'
p1246
aF0.5
aF0.2981
aF0.3605
aF1196.5
aF2.7600000000000002
aa(lp1247
F0.0
aF189.458
aS'B3c'
p1248
aF0.5
aF0.2981
aF0.3605
aF1196.5
aF5.5371
aa(lp1249
F0.0
aF151.832
aS'B3c'
p1250
aF0.5
aF0.2981
aF0.3605
aF1196.5
aF11.0739
aa(lp1251
F0.0
aF311.447
aS'B3c'
p1252
aF0.5
aF0.3975
aF0.4806
aF1196.5
aF0.2769
aa(lp1253
F0.0
aF300.681
aS'B3c'
p1254
aF0.5
aF0.3975
aF0.4806
aF1196.5
aF1.3841999999999999
aa(lp1255
F0.0
aF287.305
aS'B3c'
p1256
aF0.5
aF0.3975
aF0.4806
aF1196.5
aF2.7600000000000002
aa(lp1257
F0.0
aF261.55
aS'B3c'
p1258
aF0.5
aF0.3975
aF0.4806
aF1196.5
aF5.5371
aa(lp1259
F0.0
aF218.296
aS'B3c'
p1260
aF0.5
aF0.3975
aF0.4806
aF1196.5
aF11.0739
aa(lp1261
F9.348
aF1.521
aS'B3c'
p1262
aF0.75
aF0.0
aF0.0
aF1196.5
aF0.2769
aa(lp1263
F16.135
aF0.0
aS'B3c'
p1264
aF0.75
aF0.0
aF0.0
aF1196.5
aF1.3841999999999999
aa(lp1265
F22.199
aF0.0
aS'B3c'
p1266
aF0.75
aF0.0
aF0.0
aF1196.5
aF2.7600000000000002
aa(lp1267
F34.216
aF0.0
aS'B3c'
p1268
aF0.75
aF0.0
aF0.0
aF1196.5
aF5.5371
aa(lp1269
F60.24
aF1.599
aS'B3c'
p1270
aF0.75
aF0.0
aF0.0
aF1196.5
aF11.0739
aa(lp1271
F0.0
aF18.619
aS'B3c'
p1272
aF0.75
aF0.0497
aF0.0601
aF1196.5
aF0.2769
aa(lp1273
F0.0
aF17.043
aS'B3c'
p1274
aF0.75
aF0.0497
aF0.0601
aF1196.5
aF1.3841999999999999
aa(lp1275
F5.916
aF14.098
aS'B3c'
p1276
aF0.75
aF0.0497
aF0.0601
aF1196.5
aF2.7600000000000002
aa(lp1277
F16.136
aF11.019
aS'B3c'
p1278
aF0.75
aF0.0497
aF0.0601
aF1196.5
aF5.5371
aa(lp1279
F40.212
aF8.44
aS'B3c'
p1280
aF0.75
aF0.0497
aF0.0601
aF1196.5
aF11.0739
aa(lp1281
F0.0
aF51.705
aS'B3c'
p1282
aF0.75
aF0.0994
aF0.1202
aF1196.5
aF0.2769
aa(lp1283
F0.0
aF44.431
aS'B3c'
p1284
aF0.75
aF0.0994
aF0.1202
aF1196.5
aF1.3841999999999999
aa(lp1285
F0.0
aF35.407
aS'B3c'
p1286
aF0.75
aF0.0994
aF0.1202
aF1196.5
aF2.7600000000000002
aa(lp1287
F6.268
aF30.326
aS'B3c'
p1288
aF0.75
aF0.0994
aF0.1202
aF1196.5
aF5.5371
aa(lp1289
F25.908
aF23.986
aS'B3c'
p1290
aF0.75
aF0.0994
aF0.1202
aF1196.5
aF11.0739
aa(lp1291
F0.0
aF93.106
aS'B3c'
p1292
aF0.75
aF0.1491
aF0.1802
aF1196.5
aF0.2769
aa(lp1293
F0.0
aF83.682
aS'B3c'
p1294
aF0.75
aF0.1491
aF0.1802
aF1196.5
aF1.3841999999999999
aa(lp1295
F0.0
aF73.673
aS'B3c'
p1296
aF0.75
aF0.1491
aF0.1802
aF1196.5
aF2.7600000000000002
aa(lp1297
F0.0
aF56.351
aS'B3c'
p1298
aF0.75
aF0.1491
aF0.1802
aF1196.5
aF5.5371
aa(lp1299
F15.026
aF41.709
aS'B3c'
p1300
aF0.75
aF0.1491
aF0.1802
aF1196.5
aF11.0739
aa(lp1301
F0.0
aF132.568
aS'B3c'
p1302
aF0.75
aF0.1988
aF0.2403
aF1196.5
aF0.2769
aa(lp1303
F0.0
aF122.47
aS'B3c'
p1304
aF0.75
aF0.1988
aF0.2403
aF1196.5
aF1.3841999999999999
aa(lp1305
F0.0
aF110.951
aS'B3c'
p1306
aF0.75
aF0.1988
aF0.2403
aF1196.5
aF2.7600000000000002
aa(lp1307
F0.0
aF92.828
aS'B3c'
p1308
aF0.75
aF0.1988
aF0.2403
aF1196.5
aF5.5371
aa(lp1309
F9.633
aF68.709
aS'B3c'
p1310
aF0.75
aF0.1988
aF0.2403
aF1196.5
aF11.0739
aa(lp1311
F0.0
aF212.075
aS'B3c'
p1312
aF0.75
aF0.2981
aF0.3605
aF1196.5
aF0.2769
aa(lp1313
F0.0
aF201.518
aS'B3c'
p1314
aF0.75
aF0.2981
aF0.3605
aF1196.5
aF1.3841999999999999
aa(lp1315
F0.0
aF188.819
aS'B3c'
p1316
aF0.75
aF0.2981
aF0.3605
aF1196.5
aF2.7600000000000002
aa(lp1317
F0.0
aF166.092
aS'B3c'
p1318
aF0.75
aF0.2981
aF0.3605
aF1196.5
aF5.5371
aa(lp1319
F3.59
aF134.045
aS'B3c'
p1320
aF0.75
aF0.2981
aF0.3605
aF1196.5
aF11.0739
aa(lp1321
F0.0
aF283.361
aS'B3c'
p1322
aF0.75
aF0.3975
aF0.4806
aF1196.5
aF0.2769
aa(lp1323
F0.0
aF272.676
aS'B3c'
p1324
aF0.75
aF0.3975
aF0.4806
aF1196.5
aF1.3841999999999999
aa(lp1325
F0.0
aF259.579
aS'B3c'
p1326
aF0.75
aF0.3975
aF0.4806
aF1196.5
aF2.7600000000000002
aa(lp1327
F0.0
aF235.084
aS'B3c'
p1328
aF0.75
aF0.3975
aF0.4806
aF1196.5
aF5.5371
aa(lp1329
F1.217
aF196.21
aS'B3c'
p1330
aF0.75
aF0.3975
aF0.4806
aF1196.5
aF11.0739
aa(lp1331
F18.109
aF0.0
aS'B3c'
p1332
aF1.0
aF0.0
aF0.0
aF1196.5
aF0.2769
aa(lp1333
F22.94
aF0.0
aS'B3c'
p1334
aF1.0
aF0.0
aF0.0
aF1196.5
aF1.3841999999999999
aa(lp1335
F28.953
aF0.0
aS'B3c'
p1336
aF1.0
aF0.0
aF0.0
aF1196.5
aF2.7600000000000002
aa(lp1337
F42.228
aF0.0
aS'B3c'
p1338
aF1.0
aF0.0
aF0.0
aF1196.5
aF5.5371
aa(lp1339
F67.389
aF1.525
aS'B3c'
p1340
aF1.0
aF0.0
aF0.0
aF1196.5
aF11.0739
aa(lp1341
F2.789
aF13.822
aS'B3c'
p1342
aF1.0
aF0.0497
aF0.0601
aF1196.5
aF0.2769
aa(lp1343
F6.485
aF12.942
aS'B3c'
p1344
aF1.0
aF0.0497
aF0.0601
aF1196.5
aF1.3841999999999999
aa(lp1345
F11.346
aF10.61
aS'B3c'
p1346
aF1.0
aF0.0497
aF0.0601
aF1196.5
aF2.7600000000000002
aa(lp1347
F23.857
aF9.732
aS'B3c'
p1348
aF1.0
aF0.0497
aF0.0601
aF1196.5
aF5.5371
aa(lp1349
F47.454
aF7.842
aS'B3c'
p1350
aF1.0
aF0.0497
aF0.0601
aF1196.5
aF11.0739
aa(lp1351
F0.0
aF38.607
aS'B3c'
p1352
aF1.0
aF0.0994
aF0.1202
aF1196.5
aF0.2769
aa(lp1353
F0.0
aF32.931
aS'B3c'
p1354
aF1.0
aF0.0994
aF0.1202
aF1196.5
aF1.3841999999999999
aa(lp1355
F2.951
aF30.205
aS'B3c'
p1356
aF1.0
aF0.0994
aF0.1202
aF1196.5
aF2.7600000000000002
aa(lp1357
F10.068
aF25.236
aS'B3c'
p1358
aF1.0
aF0.0994
aF0.1202
aF1196.5
aF5.5371
aa(lp1359
F32.96
aF19.909
aS'B3c'
p1360
aF1.0
aF0.0994
aF0.1202
aF1196.5
aF11.0739
aa(lp1361
F0.0
aF76.07
aS'B3c'
p1362
aF1.0
aF0.1491
aF0.1802
aF1196.5
aF0.2769
aa(lp1363
F0.0
aF68.366
aS'B3c'
p1364
aF1.0
aF0.1491
aF0.1802
aF1196.5
aF1.3841999999999999
aa(lp1365
F0.0
aF56.97
aS'B3c'
p1366
aF1.0
aF0.1491
aF0.1802
aF1196.5
aF2.7600000000000002
aa(lp1367
F5.677
aF45.972
aS'B3c'
p1368
aF1.0
aF0.1491
aF0.1802
aF1196.5
aF5.5371
aa(lp1369
F21.73
aF35.714
aS'B3c'
p1370
aF1.0
aF0.1491
aF0.1802
aF1196.5
aF11.0739
aa(lp1371
F0.0
aF112.894
aS'B3c'
p1372
aF1.0
aF0.1988
aF0.2403
aF1196.5
aF0.2769
aa(lp1373
F0.0
aF103.87
aS'B3c'
p1374
aF1.0
aF0.1988
aF0.2403
aF1196.5
aF1.3841999999999999
aa(lp1375
F0.0
aF94.105
aS'B3c'
p1376
aF1.0
aF0.1988
aF0.2403
aF1196.5
aF2.7600000000000002
aa(lp1377
F1.263
aF79.464
aS'B3c'
p1378
aF1.0
aF0.1988
aF0.2403
aF1196.5
aF5.5371
aa(lp1379
F13.192
aF56.581
aS'B3c'
p1380
aF1.0
aF0.1988
aF0.2403
aF1196.5
aF11.0739
aa(lp1381
F0.0
aF188.439
aS'B3c'
p1382
aF1.0
aF0.2981
aF0.3605
aF1196.5
aF0.2769
aa(lp1383
F0.0
aF178.361
aS'B3c'
p1384
aF1.0
aF0.2981
aF0.3605
aF1196.5
aF1.3841999999999999
aa(lp1385
F0.0
aF166.559
aS'B3c'
p1386
aF1.0
aF0.2981
aF0.3605
aF1196.5
aF2.7600000000000002
aa(lp1387
F0.0
aF146.445
aS'B3c'
p1388
aF1.0
aF0.2981
aF0.3605
aF1196.5
aF5.5371
aa(lp1389
F7.418
aF119.266
aS'B3c'
p1390
aF1.0
aF0.2981
aF0.3605
aF1196.5
aF11.0739
aa(lp1391
F0.0
aF257.708
aS'B3c'
p1392
aF1.0
aF0.3975
aF0.4806
aF1196.5
aF0.2769
aa(lp1393
F0.0
aF247.265
aS'B3c'
p1394
aF1.0
aF0.3975
aF0.4806
aF1196.5
aF1.3841999999999999
aa(lp1395
F0.0
aF234.699
aS'B3c'
p1396
aF1.0
aF0.3975
aF0.4806
aF1196.5
aF2.7600000000000002
aa(lp1397
F0.0
aF211.902
aS'B3c'
p1398
aF1.0
aF0.3975
aF0.4806
aF1196.5
aF5.5371
aa(lp1399
F3.332
aF177.554
aS'B3c'
p1400
aF1.0
aF0.3975
aF0.4806
aF1196.5
aF11.0739
aa(lp1401
F24.342
aF0.0
aS'B3c'
p1402
aF1.25
aF0.0
aF0.0
aF1196.5
aF0.2769
aa(lp1403
F29.151
aF0.0
aS'B3c'
p1404
aF1.25
aF0.0
aF0.0
aF1196.5
aF1.3841999999999999
aa(lp1405
F35.153
aF0.0
aS'B3c'
p1406
aF1.25
aF0.0
aF0.0
aF1196.5
aF2.7600000000000002
aa(lp1407
F48.787
aF0.0
aS'B3c'
p1408
aF1.25
aF0.0
aF0.0
aF1196.5
aF5.5371
aa(lp1409
F75.451
aF0.0
aS'B3c'
p1410
aF1.25
aF0.0
aF0.0
aF1196.5
aF11.0739
aa(lp1411
F7.424
aF10.288
aS'B3c'
p1412
aF1.25
aF0.0497
aF0.0601
aF1196.5
aF0.2769
aa(lp1413
F11.734
aF9.849
aS'B3c'
p1414
aF1.25
aF0.0497
aF0.0601
aF1196.5
aF1.3841999999999999
aa(lp1415
F17.645
aF9.364
aS'B3c'
p1416
aF1.25
aF0.0497
aF0.0601
aF1196.5
aF2.7600000000000002
aa(lp1417
F30.423
aF7.371
aS'B3c'
p1418
aF1.25
aF0.0497
aF0.0601
aF1196.5
aF5.5371
aa(lp1419
F55.398
aF7.339
aS'B3c'
p1420
aF1.25
aF0.0497
aF0.0601
aF1196.5
aF11.0739
aa(lp1421
F0.0
aF30.329
aS'B3c'
p1422
aF1.25
aF0.0994
aF0.1202
aF1196.5
aF0.2769
aa(lp1423
F3.232
aF28.173
aS'B3c'
p1424
aF1.25
aF0.0994
aF0.1202
aF1196.5
aF1.3841999999999999
aa(lp1425
F7.35
aF24.92
aS'B3c'
p1426
aF1.25
aF0.0994
aF0.1202
aF1196.5
aF2.7600000000000002
aa(lp1427
F17.055
aF22.227
aS'B3c'
p1428
aF1.25
aF0.0994
aF0.1202
aF1196.5
aF5.5371
aa(lp1429
F39.677
aF18.002
aS'B3c'
p1430
aF1.25
aF0.0994
aF0.1202
aF1196.5
aF11.0739
aa(lp1431
F0.0
aF61.411
aS'B3c'
p1432
aF1.25
aF0.1491
aF0.1802
aF1196.5
aF0.2769
aa(lp1433
F0.0
aF53.375
aS'B3c'
p1434
aF1.25
aF0.1491
aF0.1802
aF1196.5
aF1.3841999999999999
aa(lp1435
F2.697
aF45.958
aS'B3c'
p1436
aF1.25
aF0.1491
aF0.1802
aF1196.5
aF2.7600000000000002
aa(lp1437
F8.921
aF39.42
aS'B3c'
p1438
aF1.25
aF0.1491
aF0.1802
aF1196.5
aF5.5371
aa(lp1439
F28.724
aF32.384
aS'B3c'
p1440
aF1.25
aF0.1491
aF0.1802
aF1196.5
aF11.0739
aa(lp1441
F0.0
aF96.277
aS'B3c'
p1442
aF1.25
aF0.1988
aF0.2403
aF1196.5
aF0.2769
aa(lp1443
F0.0
aF88.635
aS'B3c'
p1444
aF1.25
aF0.1988
aF0.2403
aF1196.5
aF1.3841999999999999
aa(lp1445
F0.0
aF80.714
aS'B3c'
p1446
aF1.25
aF0.1988
aF0.2403
aF1196.5
aF2.7600000000000002
aa(lp1447
F5.659
aF66.013
aS'B3c'
p1448
aF1.25
aF0.1988
aF0.2403
aF1196.5
aF5.5371
aa(lp1449
F20.348
aF51.091
aS'B3c'
p1450
aF1.25
aF0.1988
aF0.2403
aF1196.5
aF11.0739
aa(lp1451
F0.0
aF167.381
aS'B3c'
p1452
aF1.25
aF0.2981
aF0.3605
aF1196.5
aF0.2769
aa(lp1453
F0.0
aF158.02
aS'B3c'
p1454
aF1.25
aF0.2981
aF0.3605
aF1196.5
aF1.3841999999999999
aa(lp1455
F0.0
aF147.413
aS'B3c'
p1456
aF1.25
aF0.2981
aF0.3605
aF1196.5
aF2.7600000000000002
aa(lp1457
F0.0
aF130.04
aS'B3c'
p1458
aF1.25
aF0.2981
aF0.3605
aF1196.5
aF5.5371
aa(lp1459
F10.402
aF106.801
aS'B3c'
p1460
aF1.25
aF0.2981
aF0.3605
aF1196.5
aF11.0739
aa(lp1461
F0.0
aF234.448
aS'B3c'
p1462
aF1.25
aF0.3975
aF0.4806
aF1196.5
aF0.2769
aa(lp1463
F0.0
aF224.455
aS'B3c'
p1464
aF1.25
aF0.3975
aF0.4806
aF1196.5
aF1.3841999999999999
aa(lp1465
F0.0
aF212.633
aS'B3c'
p1466
aF1.25
aF0.3975
aF0.4806
aF1196.5
aF2.7600000000000002
aa(lp1467
F0.0
aF191.866
aS'B3c'
p1468
aF1.25
aF0.3975
aF0.4806
aF1196.5
aF5.5371
aa(lp1469
F6.55
aF161.641
aS'B3c'
p1470
aF1.25
aF0.3975
aF0.4806
aF1196.5
aF11.0739
aa(lp1471
F30.071
aF0.0
aS'B3c'
p1472
aF1.5
aF0.0
aF0.0
aF1196.5
aF0.2769
aa(lp1473
F34.874
aF0.0
aS'B3c'
p1474
aF1.5
aF0.0
aF0.0
aF1196.5
aF1.3841999999999999
aa(lp1475
F42.28
aF0.0
aS'B3c'
p1476
aF1.5
aF0.0
aF0.0
aF1196.5
aF2.7600000000000002
aa(lp1477
F54.86
aF0.0
aS'B3c'
p1478
aF1.5
aF0.0
aF0.0
aF1196.5
aF5.5371
aa(lp1479
F81.815
aF0.0
aS'B3c'
p1480
aF1.5
aF0.0
aF0.0
aF1196.5
aF11.0739
aa(lp1481
F12.635
aF9.093
aS'B3c'
p1482
aF1.5
aF0.0497
aF0.0601
aF1196.5
aF0.2769
aa(lp1483
F19.051
aF8.703
aS'B3c'
p1484
aF1.5
aF0.0497
aF0.0601
aF1196.5
aF1.3841999999999999
aa(lp1485
F24.807
aF6.992
aS'B3c'
p1486
aF1.5
aF0.0497
aF0.0601
aF1196.5
aF2.7600000000000002
aa(lp1487
F36.574
aF6.806
aS'B3c'
p1488
aF1.5
aF0.0497
aF0.0601
aF1196.5
aF5.5371
aa(lp1489
F61.945
aF6.908
aS'B3c'
p1490
aF1.5
aF0.0497
aF0.0601
aF1196.5
aF11.0739
aa(lp1491
F5.184
aF24.768
aS'B3c'
p1492
aF1.5
aF0.0994
aF0.1202
aF1196.5
aF0.2769
aa(lp1493
F7.546
aF23.425
aS'B3c'
p1494
aF1.5
aF0.0994
aF0.1202
aF1196.5
aF1.3841999999999999
aa(lp1495
F12.019
aF21.967
aS'B3c'
p1496
aF1.5
aF0.0994
aF0.1202
aF1196.5
aF2.7600000000000002
aa(lp1497
F23.534
aF18.33
aS'B3c'
p1498
aF1.5
aF0.0994
aF0.1202
aF1196.5
aF5.5371
aa(lp1499
F46.029
aF15.075
aS'B3c'
p1500
aF1.5
aF0.0994
aF0.1202
aF1196.5
aF11.0739
aa(lp1501
F0.0
aF49.49
aS'B3c'
p1502
aF1.5
aF0.1491
aF0.1802
aF1196.5
aF0.2769
aa(lp1503
F2.861
aF43.479
aS'B3c'
p1504
aF1.5
aF0.1491
aF0.1802
aF1196.5
aF1.3841999999999999
aa(lp1505
F6.402
aF39.263
aS'B3c'
p1506
aF1.5
aF0.1491
aF0.1802
aF1196.5
aF2.7600000000000002
aa(lp1507
F13.473
aF35.152
aS'B3c'
p1508
aF1.5
aF0.1491
aF0.1802
aF1196.5
aF5.5371
aa(lp1509
F34.805
aF29.49
aS'B3c'
p1510
aF1.5
aF0.1491
aF0.1802
aF1196.5
aF11.0739
aa(lp1511
F0.0
aF82.702
aS'B3c'
p1512
aF1.5
aF0.1988
aF0.2403
aF1196.5
aF0.2769
aa(lp1513
F0.0
aF76.456
aS'B3c'
p1514
aF1.5
aF0.1988
aF0.2403
aF1196.5
aF1.3841999999999999
aa(lp1515
F2.789
aF68.461
aS'B3c'
p1516
aF1.5
aF0.1988
aF0.2403
aF1196.5
aF2.7600000000000002
aa(lp1517
F8.56
aF54.256
aS'B3c'
p1518
aF1.5
aF0.1988
aF0.2403
aF1196.5
aF5.5371
aa(lp1519
F25.365
aF45.13
aS'B3c'
p1520
aF1.5
aF0.1988
aF0.2403
aF1196.5
aF11.0739
aa(lp1521
F0.0
aF148.894
aS'B3c'
p1522
aF1.5
aF0.2981
aF0.3605
aF1196.5
aF0.2769
aa(lp1523
F0.0
aF140.509
aS'B3c'
p1524
aF1.5
aF0.2981
aF0.3605
aF1196.5
aF1.3841999999999999
aa(lp1525
F0.0
aF131.205
aS'B3c'
p1526
aF1.5
aF0.2981
aF0.3605
aF1196.5
aF2.7600000000000002
aa(lp1527
F3.132
aF116.173
aS'B3c'
p1528
aF1.5
aF0.2981
aF0.3605
aF1196.5
aF5.5371
aa(lp1529
F13.454
aF96.247
aS'B3c'
p1530
aF1.5
aF0.2981
aF0.3605
aF1196.5
aF11.0739
aa(lp1531
F0.0
aF213.559
aS'B3c'
p1532
aF1.5
aF0.3975
aF0.4806
aF1196.5
aF0.2769
aa(lp1533
F0.0
aF204.136
aS'B3c'
p1534
aF1.5
aF0.3975
aF0.4806
aF1196.5
aF1.3841999999999999
aa(lp1535
F0.0
aF193.261
aS'B3c'
p1536
aF1.5
aF0.3975
aF0.4806
aF1196.5
aF2.7600000000000002
aa(lp1537
F0.0
aF174.683
aS'B3c'
p1538
aF1.5
aF0.3975
aF0.4806
aF1196.5
aF5.5371
aa(lp1539
F9.129
aF147.937
aS'B3c'
p1540
aF1.5
aF0.3975
aF0.4806
aF1196.5
aF11.0739
aa(lp1541
F46.664
aF0.0
aS'B3c'
p1542
aF2.25
aF0.0
aF0.0
aF1196.5
aF0.2769
aa(lp1543
F51.696
aF0.0
aS'B3c'
p1544
aF2.25
aF0.0
aF0.0
aF1196.5
aF1.3841999999999999
aa(lp1545
F57.993
aF0.0
aS'B3c'
p1546
aF2.25
aF0.0
aF0.0
aF1196.5
aF2.7600000000000002
aa(lp1547
F72.16
aF0.0
aS'B3c'
p1548
aF2.25
aF0.0
aF0.0
aF1196.5
aF5.5371
aa(lp1549
F98.313
aF0.0
aS'B3c'
p1550
aF2.25
aF0.0
aF0.0
aF1196.5
aF11.0739
aa(lp1551
F30.13
aF5.654
aS'B3c'
p1552
aF2.25
aF0.0497
aF0.0601
aF1196.5
aF0.2769
aa(lp1553
F34.858
aF5.581
aS'B3c'
p1554
aF2.25
aF0.0497
aF0.0601
aF1196.5
aF1.3841999999999999
aa(lp1555
F40.803
aF5.535
aS'B3c'
p1556
aF2.25
aF0.0497
aF0.0601
aF1196.5
aF2.7600000000000002
aa(lp1557
F54.095
aF5.57
aS'B3c'
p1558
aF2.25
aF0.0497
aF0.0601
aF1196.5
aF5.5371
aa(lp1559
F79.185
aF5.978
aS'B3c'
p1560
aF2.25
aF0.0497
aF0.0601
aF1196.5
aF11.0739
aa(lp1561
F17.684
aF15.962
aS'B3c'
p1562
aF2.25
aF0.0994
aF0.1202
aF1196.5
aF0.2769
aa(lp1563
F22.934
aF15.315
aS'B3c'
p1564
aF2.25
aF0.0994
aF0.1202
aF1196.5
aF1.3841999999999999
aa(lp1565
F28.403
aF13.332
aS'B3c'
p1566
aF2.25
aF0.0994
aF0.1202
aF1196.5
aF2.7600000000000002
aa(lp1567
F39.702
aF12.739
aS'B3c'
p1568
aF2.25
aF0.0994
aF0.1202
aF1196.5
aF5.5371
aa(lp1569
F64.389
aF12.235
aS'B3c'
p1570
aF2.25
aF0.0994
aF0.1202
aF1196.5
aF11.0739
aa(lp1571
F9.521
aF30.031
aS'B3c'
p1572
aF2.25
aF0.1491
aF0.1802
aF1196.5
aF0.2769
aa(lp1573
F13.293
aF28.86
aS'B3c'
p1574
aF2.25
aF0.1491
aF0.1802
aF1196.5
aF1.3841999999999999
aa(lp1575
F18.643
aF27.561
aS'B3c'
p1576
aF2.25
aF0.1491
aF0.1802
aF1196.5
aF2.7600000000000002
aa(lp1577
F29.585
aF25.453
aS'B3c'
p1578
aF2.25
aF0.1491
aF0.1802
aF1196.5
aF5.5371
aa(lp1579
F51.561
aF21.398
aS'B3c'
p1580
aF2.25
aF0.1491
aF0.1802
aF1196.5
aF11.0739
aa(lp1581
F6.514
aF49.289
aS'B3c'
p1582
aF2.25
aF0.1988
aF0.2403
aF1196.5
aF0.2769
aa(lp1583
F8.573
aF47.056
aS'B3c'
p1584
aF2.25
aF0.1988
aF0.2403
aF1196.5
aF1.3841999999999999
aa(lp1585
F11.315
aF44.58
aS'B3c'
p1586
aF2.25
aF0.1988
aF0.2403
aF1196.5
aF2.7600000000000002
aa(lp1587
F21.418
aF39.513
aS'B3c'
p1588
aF2.25
aF0.1988
aF0.2403
aF1196.5
aF5.5371
aa(lp1589
F42.396
aF34.156
aS'B3c'
p1590
aF2.25
aF0.1988
aF0.2403
aF1196.5
aF11.0739
aa(lp1591
F1.234
aF107.559
aS'B3c'
p1592
aF2.25
aF0.2981
aF0.3605
aF1196.5
aF0.2769
aa(lp1593
F3.349
aF101.853
aS'B3c'
p1594
aF2.25
aF0.2981
aF0.3605
aF1196.5
aF1.3841999999999999
aa(lp1595
F6.407
aF95.676
aS'B3c'
p1596
aF2.25
aF0.2981
aF0.3605
aF1196.5
aF2.7600000000000002
aa(lp1597
F11.263
aF85.842
aS'B3c'
p1598
aF2.25
aF0.2981
aF0.3605
aF1196.5
aF5.5371
aa(lp1599
F29.286
aF71.427
aS'B3c'
p1600
aF2.25
aF0.2981
aF0.3605
aF1196.5
aF11.0739
aa(lp1601
F0.0
aF164.141
aS'B3c'
p1602
aF2.25
aF0.3975
aF0.4806
aF1196.5
aF0.2769
aa(lp1603
F0.0
aF156.972
aS'B3c'
p1604
aF2.25
aF0.3975
aF0.4806
aF1196.5
aF1.3841999999999999
aa(lp1605
F2.854
aF148.945
aS'B3c'
p1606
aF2.25
aF0.3975
aF0.4806
aF1196.5
aF2.7600000000000002
aa(lp1607
F7.349
aF135.492
aS'B3c'
p1608
aF2.25
aF0.3975
aF0.4806
aF1196.5
aF5.5371
aa(lp1609
F20.477
aF116.457
aS'B3c'
p1610
aF2.25
aF0.3975
aF0.4806
aF1196.5
aF11.0739
aa(lp1611
F66.096
aF0.0
aS'B3c'
p1612
aF3.45
aF0.0
aF0.0
aF1196.5
aF0.2769
aa(lp1613
F71.319
aF0.0
aS'B3c'
p1614
aF3.45
aF0.0
aF0.0
aF1196.5
aF1.3841999999999999
aa(lp1615
F77.85
aF0.0
aS'B3c'
p1616
aF3.45
aF0.0
aF0.0
aF1196.5
aF2.7600000000000002
aa(lp1617
F90.927
aF0.0
aS'B3c'
p1618
aF3.45
aF0.0
aF0.0
aF1196.5
aF5.5371
aa(lp1619
F117.117
aF0.0
aS'B3c'
p1620
aF3.45
aF0.0
aF0.0
aF1196.5
aF11.0739
aa(lp1621
F50.126
aF4.147
aS'B3c'
p1622
aF3.45
aF0.0497
aF0.0601
aF1196.5
aF0.2769
aa(lp1623
F55.132
aF4.186
aS'B3c'
p1624
aF3.45
aF0.0497
aF0.0601
aF1196.5
aF1.3841999999999999
aa(lp1625
F61.408
aF4.265
aS'B3c'
p1626
aF3.45
aF0.0497
aF0.0601
aF1196.5
aF2.7600000000000002
aa(lp1627
F73.999
aF4.498
aS'B3c'
p1628
aF3.45
aF0.0497
aF0.0601
aF1196.5
aF5.5371
aa(lp1629
F101.275
aF5.149
aS'B3c'
p1630
aF3.45
aF0.0497
aF0.0601
aF1196.5
aF11.0739
aa(lp1631
F37.186
aF9.934
aS'B3c'
p1632
aF3.45
aF0.0994
aF0.1202
aF1196.5
aF0.2769
aa(lp1633
F41.792
aF8.344
aS'B3c'
p1634
aF3.45
aF0.0994
aF0.1202
aF1196.5
aF1.3841999999999999
aa(lp1635
F47.591
aF8.317
aS'B3c'
p1636
aF3.45
aF0.0994
aF0.1202
aF1196.5
aF2.7600000000000002
aa(lp1637
F60.795
aF8.362
aS'B3c'
p1638
aF3.45
aF0.0994
aF0.1202
aF1196.5
aF5.5371
aa(lp1639
F86.84
aF8.738
aS'B3c'
p1640
aF3.45
aF0.0994
aF0.1202
aF1196.5
aF11.0739
aa(lp1641
F28.331
aF20.161
aS'B3c'
p1642
aF3.45
aF0.1491
aF0.1802
aF1196.5
aF0.2769
aa(lp1643
F32.57
aF18.069
aS'B3c'
p1644
aF3.45
aF0.1491
aF0.1802
aF1196.5
aF1.3841999999999999
aa(lp1645
F37.996
aF17.524
aS'B3c'
p1646
aF3.45
aF0.1491
aF0.1802
aF1196.5
aF2.7600000000000002
aa(lp1647
F49.157
aF15.479
aS'B3c'
p1648
aF3.45
aF0.1491
aF0.1802
aF1196.5
aF5.5371
aa(lp1649
F73.878
aF15.113
aS'B3c'
p1650
aF3.45
aF0.1491
aF0.1802
aF1196.5
aF11.0739
aa(lp1651
F20.801
aF30.85
aS'B3c'
p1652
aF3.45
aF0.1988
aF0.2403
aF1196.5
aF0.2769
aa(lp1653
F25.654
aF29.92
aS'B3c'
p1654
aF3.45
aF0.1988
aF0.2403
aF1196.5
aF1.3841999999999999
aa(lp1655
F30.558
aF28.893
aS'B3c'
p1656
aF3.45
aF0.1988
aF0.2403
aF1196.5
aF2.7600000000000002
aa(lp1657
F40.929
aF27.245
aS'B3c'
p1658
aF3.45
aF0.1988
aF0.2403
aF1196.5
aF5.5371
aa(lp1659
F64.099
aF25.224
aS'B3c'
p1660
aF3.45
aF0.1988
aF0.2403
aF1196.5
aF11.0739
aa(lp1661
F11.271
aF71.029
aS'B3c'
p1662
aF3.45
aF0.2981
aF0.3605
aF1196.5
aF0.2769
aa(lp1663
F16.216
aF66.342
aS'B3c'
p1664
aF3.45
aF0.2981
aF0.3605
aF1196.5
aF1.3841999999999999
aa(lp1665
F19.871
aF60.166
aS'B3c'
p1666
aF3.45
aF0.2981
aF0.3605
aF1196.5
aF2.7600000000000002
aa(lp1667
F29.24
aF53.156
aS'B3c'
p1668
aF3.45
aF0.2981
aF0.3605
aF1196.5
aF5.5371
aa(lp1669
F48.624
aF48.03
aS'B3c'
p1670
aF3.45
aF0.2981
aF0.3605
aF1196.5
aF11.0739
aa(lp1671
F7.619
aF116.795
aS'B3c'
p1672
aF3.45
aF0.3975
aF0.4806
aF1196.5
aF0.2769
aa(lp1673
F9.376
aF112.123
aS'B3c'
p1674
aF3.45
aF0.3975
aF0.4806
aF1196.5
aF1.3841999999999999
aa(lp1675
F11.736
aF106.919
aS'B3c'
p1676
aF3.45
aF0.3975
aF0.4806
aF1196.5
aF2.7600000000000002
aa(lp1677
F20.61
aF98.269
aS'B3c'
p1678
aF3.45
aF0.3975
aF0.4806
aF1196.5
aF5.5371
aa(lp1679
F38.033
aF85.858
aS'B3c'
p1680
aF3.45
aF0.3975
aF0.4806
aF1196.5
aF11.0739
aa(lp1681
F161.29205000000002
aF4.321199999999999
aS'B3c'
p1682
aF13.8
aF0.0
aF0.0
aF71.5
aF0.2769
aa(lp1683
F165.07719406249998
aF0.7223581249999997
ag1682
aF13.8
aF0.0
aF0.0
aF656.5
aF0.2769
aa(lp1684
F176.82109027777778
aF-0.15155375000000001
aS'B3c'
p1685
aF13.8
aF0.0
aF0.0
aF1196.5
aF0.2769
aa(lp1686
F166.71055901639346
aF4.514826229508197
ag1682
aF13.8
aF0.0
aF0.0
aF71.5
aF1.3841999999999999
aa(lp1687
F170.43279766507288
aF2.019616045081967
ag1682
aF13.8
aF0.0
aF0.0
aF656.5
aF1.3841999999999999
aa(lp1688
F182.14541940649667
aF0.8673622632058287
ag1685
aF13.8
aF0.0
aF0.0
aF1196.5
aF1.3841999999999999
aa(lp1689
F173.44129600560618
aF4.756090259285214
aS'B3c'
p1690
aF13.8
aF0.0
aF0.0
aF71.5
aF2.7600000000000002
aa(lp1691
F177.36516496291756
aF2.735167044498949
ag1690
aF13.8
aF0.0
aF0.0
aF656.5
aF2.7600000000000002
aa(lp1692
F188.98858286634743
aF1.406440358561084
aS'B3c'
p1693
aF13.8
aF0.0
aF0.0
aF1196.5
aF2.7600000000000002
aa(lp1694
F187.0270949544499
aF5.2432666433076385
ag1690
aF13.8
aF0.0
aF0.0
aF71.5
aF5.5371
aa(lp1695
F191.42987608254495
aF3.9491630759460405
ag1690
aF13.8
aF0.0
aF0.0
aF656.5
aF5.5371
aa(lp1696
F202.86029250953825
aF2.307750906135638
ag1693
aF13.8
aF0.0
aF0.0
aF1196.5
aF5.5371
aa(lp1697
F214.15884024896263
aF6.218946058091286
aS'B3c'
p1698
aF13.8
aF0.0
aF0.0
aF71.5
aF11.0739
aa(lp1699
F218.47738110736515
aF4.953437275242047
ag1698
aF13.8
aF0.0
aF0.0
aF656.5
aF11.0739
aa(lp1700
F229.7319832699401
aF4.135510186145689
aS'B3c'
p1701
aF13.8
aF0.0
aF0.0
aF1196.5
aF11.0739
aa(lp1702
F152.3928117610063
aF5.860555911949685
ag1682
aF13.8
aF0.0497
aF0.0601
aF71.5
aF0.2769
aa(lp1703
F156.14629050262053
aF3.5753682610062896
ag1682
aF13.8
aF0.0497
aF0.0601
aF656.5
aF0.2769
aa(lp1704
F167.10269744627882
aF2.796392155573025
ag1685
aF13.8
aF0.0497
aF0.0601
aF1196.5
aF0.2769
aa(lp1705
F157.8037553500361
aF6.061117116541224
ag1682
aF13.8
aF0.0497
aF0.0601
aF71.5
aF1.3841999999999999
aa(lp1706
F161.50478236470255
aF4.181653108759781
ag1682
aF13.8
aF0.0497
aF0.0601
aF656.5
aF1.3841999999999999
aa(lp1707
F172.43610246094957
aF3.291457488420914
ag1685
aF13.8
aF0.0497
aF0.0601
aF1196.5
aF1.3841999999999999
aa(lp1708
F164.52719304341696
aF6.309591963612805
ag1690
aF13.8
aF0.0497
aF0.0601
aF71.5
aF2.7600000000000002
aa(lp1709
F168.26710160628616
aF4.599053824294198
ag1690
aF13.8
aF0.0497
aF0.0601
aF656.5
aF2.7600000000000002
aa(lp1710
F179.14831861017163
aF3.634871762088542
ag1693
aF13.8
aF0.0497
aF0.0601
aF1196.5
aF2.7600000000000002
aa(lp1711
F178.0987980316713
aF6.810962308224582
ag1690
aF13.8
aF0.0497
aF0.0601
aF71.5
aF5.5371
aa(lp1712
F181.9439348718155
aF5.355255762318766
ag1690
aF13.8
aF0.0497
aF0.0601
aF656.5
aF5.5371
aa(lp1713
F192.71915064726483
aF4.258231329431714
ag1693
aF13.8
aF0.0497
aF0.0601
aF1196.5
aF5.5371
aa(lp1714
F205.20871187661473
aF7.806726104543439
ag1698
aF13.8
aF0.0497
aF0.0601
aF71.5
aF11.0739
aa(lp1715
F209.44002033322786
aF6.33786894614943
ag1698
aF13.8
aF0.0497
aF0.0601
aF656.5
aF11.0739
aa(lp1716
F219.97706655754254
aF5.523190323838479
ag1701
aF13.8
aF0.0497
aF0.0601
aF1196.5
aF11.0739
aa(lp1717
F143.9388203773585
aF7.551389622641509
aS'B3c'
p1718
aF13.8
aF0.0994
aF0.1202
aF71.5
aF0.2769
aa(lp1719
F147.5219765587002
aF5.9780495843815515
ag1718
aF13.8
aF0.0994
aF0.1202
aF656.5
aF0.2769
aa(lp1720
F157.5590283183089
aF5.2505325462089445
aS'B3c'
p1721
aF13.8
aF0.0994
aF0.1202
aF1196.5
aF0.2769
aa(lp1722
F149.31569290442314
aF7.753584675396089
ag1718
aF13.8
aF0.0994
aF0.1202
aF71.5
aF1.3841999999999999
aa(lp1723
F152.86821218109256
aF6.16830157281965
ag1718
aF13.8
aF0.0994
aF0.1202
aF656.5
aF1.3841999999999999
aa(lp1724
F162.8852152657242
aF5.430165280934842
ag1721
aF13.8
aF0.0994
aF0.1202
aF1196.5
aF1.3841999999999999
aa(lp1725
F156.00563368195583
aF8.003531309471866
aS'B3c'
p1726
aF13.8
aF0.0994
aF0.1202
aF71.5
aF2.7600000000000002
aa(lp1727
F159.51560569835306
aF6.405150019758947
ag1726
aF13.8
aF0.0994
aF0.1202
aF656.5
aF2.7600000000000002
aa(lp1728
F169.54086872951422
aF5.6551478474841534
aS'B3c'
p1729
aF13.8
aF0.0994
aF0.1202
aF1196.5
aF2.7600000000000002
aa(lp1730
F169.51189504480084
aF8.507729022490778
ag1726
aF13.8
aF0.0994
aF0.1202
aF71.5
aF5.5371
aa(lp1731
F172.9348320666441
aF6.883356040323339
ag1726
aF13.8
aF0.0994
aF0.1202
aF656.5
aF5.5371
aa(lp1732
F182.9852938102058
aF6.109743603359661
ag1729
aF13.8
aF0.0994
aF0.1202
aF1196.5
aF5.5371
aa(lp1733
F196.53786070356742
aF9.506560823612308
aS'B3c'
p1734
aF13.8
aF0.0994
aF0.1202
aF71.5
aF11.0739
aa(lp1735
F200.4406120455366
aF7.846806869862211
ag1734
aF13.8
aF0.0994
aF0.1202
aF656.5
aF11.0739
aa(lp1736
F210.28121551104255
aF7.034168849667702
aS'B3c'
p1737
aF13.8
aF0.0994
aF0.1202
aF1196.5
aF11.0739
aa(lp1738
F136.15158056603775
aF9.469059433962265
ag1718
aF13.8
aF0.1491
aF0.1802
aF71.5
aF0.2769
aa(lp1739
F139.35677671305032
aF7.706369168238994
ag1718
aF13.8
aF0.1491
aF0.1802
aF656.5
aF0.2769
aa(lp1740
F148.2770057413522
aF6.965205381813417
ag1721
aF13.8
aF0.1491
aF0.1802
aF1196.5
aF0.2769
aa(lp1741
F141.45469017630683
aF9.664949963913806
ag1718
aF13.8
aF0.1491
aF0.1802
aF71.5
aF1.3841999999999999
aa(lp1742
F144.66807739846033
aF7.892307812326013
ag1718
aF13.8
aF0.1491
aF0.1802
aF656.5
aF1.3841999999999999
aa(lp1743
F153.57157463128215
aF7.141508978248043
ag1721
aF13.8
aF0.1491
aF0.1802
aF1196.5
aF1.3841999999999999
aa(lp1744
F148.07190343113274
aF9.907774259232326
ag1726
aF13.8
aF0.1491
aF0.1802
aF71.5
aF2.7600000000000002
aa(lp1745
F151.28309019098322
aF8.12470554120114
ag1726
aF13.8
aF0.1491
aF0.1802
aF656.5
aF2.7600000000000002
aa(lp1746
F160.2820554513919
aF7.363713958993887
ag1729
aF13.8
aF0.1491
aF0.1802
aF1196.5
aF2.7600000000000002
aa(lp1747
F161.43622518808422
aF10.397778011661885
ag1726
aF13.8
aF0.1491
aF0.1802
aF71.5
aF5.5371
aa(lp1748
F164.63978878336374
aF8.594161154037918
ag1726
aF13.8
aF0.1491
aF0.1802
aF656.5
aF5.5371
aa(lp1749
F173.86134118175931
aF7.81305231692729
ag1729
aF13.8
aF0.1491
aF0.1802
aF1196.5
aF5.5371
aa(lp1750
F188.28522362796525
aF11.374196007202695
ag1734
aF13.8
aF0.1491
aF0.1802
aF71.5
aF11.0739
aa(lp1751
F191.4980371295082
aF9.542191343002166
ag1734
aF13.8
aF0.1491
aF0.1802
aF656.5
aF11.0739
aa(lp1752
F200.6738145571931
aF8.729785162756508
ag1737
aF13.8
aF0.1491
aF0.1802
aF1196.5
aF11.0739
aa(lp1753
F129.73398641509434
aF12.868290503144655
aS'B3c'
p1754
aF13.8
aF0.1988
aF0.2403
aF71.5
aF0.2769
aa(lp1755
F132.15628923427673
aF9.924471765723272
ag1754
aF13.8
aF0.1988
aF0.2403
aF656.5
aF0.2769
aa(lp1756
F140.04572962124388
aF8.95046436504193
aS'B3c'
p1757
aF13.8
aF0.1988
aF0.2403
aF1196.5
aF0.2769
aa(lp1758
F134.91335105474792
aF13.039701217994983
ag1754
aF13.8
aF0.1988
aF0.2403
aF71.5
aF1.3841999999999999
aa(lp1759
F137.38905111016314
aF10.095894499759426
ag1754
aF13.8
aF0.1988
aF0.2403
aF656.5
aF1.3841999999999999
aa(lp1760
F145.28257661084953
aF9.11481607745262
ag1757
aF13.8
aF0.1988
aF0.2403
aF1196.5
aF1.3841999999999999
aa(lp1761
F141.40629481932012
aF13.2552983510289
aS'B3c'
p1762
aF13.8
aF0.1988
aF0.2403
aF71.5
aF2.7600000000000002
aa(lp1763
F143.9258818414161
aF10.312968999687078
ag1762
aF13.8
aF0.1988
aF0.2403
aF656.5
aF2.7600000000000002
aa(lp1764
F151.88261916130412
aF9.324625385038567
aS'B3c'
p1765
aF13.8
aF0.1988
aF0.2403
aF1196.5
aF2.7600000000000002
aa(lp1766
F154.52735192006804
aF13.691162690343026
ag1762
aF13.8
aF0.1988
aF0.2403
aF71.5
aF5.5371
aa(lp1767
F157.12975387857566
aF10.75219134557185
ag1762
aF13.8
aF0.1988
aF0.2403
aF656.5
aF5.5371
aa(lp1768
F165.22902922093783
aF9.749573483633622
ag1765
aF13.8
aF0.1988
aF0.2403
aF1196.5
aF5.5371
aa(lp1769
F181.01415681776663
aF14.581862157154415
aS'B3c'
p1770
aF13.8
aF0.1988
aF0.2403
aF71.5
aF11.0739
aa(lp1771
F183.66046984910662
aF11.65283891943292
ag1770
aF13.8
aF0.1988
aF0.2403
aF656.5
aF11.0739
aa(lp1772
F191.97081646747986
aF10.629373890762778
aS'B3c'
p1773
aF13.8
aF0.1988
aF0.2403
aF1196.5
aF11.0739
aa(lp1774
F119.91888716981133
aF23.570510754716977
aS'B3c'
p1775
aF13.8
aF0.2981
aF0.3605
aF71.5
aF0.2769
aa(lp1776
F120.18019823453879
aF18.050287162473794
ag1775
aF13.8
aF0.2981
aF0.3605
aF656.5
aF0.2769
aa(lp1777
F126.10249156795948
aF16.231395308525506
aS'B3c'
p1778
aF13.8
aF0.2981
aF0.3605
aF1196.5
aF0.2769
aa(lp1779
F124.8348648300512
aF23.584937583256004
ag1775
aF13.8
aF0.2981
aF0.3605
aF71.5
aF1.3841999999999999
aa(lp1780
F125.1881447015271
aF18.108892511716554
ag1775
aF13.8
aF0.2981
aF0.3605
aF656.5
aF1.3841999999999999
aa(lp1781
F131.15330435548913
aF16.30240536312067
ag1778
aF13.8
aF0.2981
aF0.3605
aF1196.5
aF1.3841999999999999
aa(lp1782
F131.03097429713566
aF23.468990927529713
aS'B3c'
p1783
aF13.8
aF0.2981
aF0.3605
aF71.5
aF2.7600000000000002
aa(lp1784
F131.5883515232
aF18.169500060949797
ag1783
aF13.8
aF0.2981
aF0.3605
aF656.5
aF2.7600000000000002
aa(lp1785
F137.56808862469657
aF16.410456154514094
aS'B3c'
p1786
aF13.8
aF0.2981
aF0.3605
aF1196.5
aF2.7600000000000002
aa(lp1787
F143.5606797477225
aF23.20053943709149
ag1783
aF13.8
aF0.2981
aF0.3605
aF71.5
aF5.5371
aa(lp1788
F144.55312306261374
aF18.288700534329504
ag1783
aF13.8
aF0.2981
aF0.3605
aF656.5
aF5.5371
aa(lp1789
F150.5523424839578
aF16.63365531100379
ag1786
aF13.8
aF0.2981
aF0.3605
aF1196.5
aF5.5371
aa(lp1790
F169.10359930321772
aF23.605159557921656
aS'B3c'
p1791
aF13.8
aF0.2981
aF0.3605
aF71.5
aF11.0739
aa(lp1792
F170.38378638233212
aF18.423570304570404
ag1791
aF13.8
aF0.2981
aF0.3605
aF656.5
aF11.0739
aa(lp1793
F176.69761802610975
aF16.701305905961938
aS'B3c'
p1794
aF13.8
aF0.2981
aF0.3605
aF1196.5
aF11.0739
aa(lp1795
F111.64515
aF36.40005
ag1775
aF13.8
aF0.3975
aF0.4806
aF71.5
aF0.2769
aa(lp1796
F109.47955979166667
aF28.485108750000002
ag1775
aF13.8
aF0.3975
aF0.4806
aF656.5
aF0.2769
aa(lp1797
F113.46579618055556
aF25.63996625
ag1778
aF13.8
aF0.3975
aF0.4806
aF1196.5
aF0.2769
aa(lp1798
F116.30327267759561
aF36.191296721311474
ag1775
aF13.8
aF0.3975
aF0.4806
aF71.5
aF1.3841999999999999
aa(lp1799
F114.23164245446266
aF28.37827816712204
ag1775
aF13.8
aF0.3975
aF0.4806
aF656.5
aF1.3841999999999999
aa(lp1800
F118.2918921334244
aF25.574082348208865
ag1778
aF13.8
aF0.3975
aF0.4806
aF1196.5
aF1.3841999999999999
aa(lp1801
F122.1869599159075
aF35.5653409950946
ag1783
aF13.8
aF0.3975
aF0.4806
aF71.5
aF2.7600000000000002
aa(lp1802
F120.52332288279607
aF28.201949211340807
ag1783
aF13.8
aF0.3975
aF0.4806
aF656.5
aF2.7600000000000002
aa(lp1803
F124.59959860215682
aF25.532122729891775
ag1786
aF13.8
aF0.3975
aF0.4806
aF1196.5
aF2.7600000000000002
aa(lp1804
F134.08807568325156
aF34.20760441485634
ag1783
aF13.8
aF0.3975
aF0.4806
aF71.5
aF5.5371
aa(lp1805
F133.32284715019853
aF27.83481812660593
ag1783
aF13.8
aF0.3975
aF0.4806
aF656.5
aF5.5371
aa(lp1806
F137.41195458664254
aF25.457681291851593
ag1786
aF13.8
aF0.3975
aF0.4806
aF1196.5
aF5.5371
aa(lp1807
F158.6006970954357
aF33.93672199170125
ag1791
aF13.8
aF0.3975
aF0.4806
aF71.5
aF11.0739
aa(lp1808
F158.31627509076765
aF26.76625036307054
ag1791
aF13.8
aF0.3975
aF0.4806
aF656.5
aF11.0739
aa(lp1809
F162.51976466113416
aF24.22973192715537
ag1794
aF13.8
aF0.3975
aF0.4806
aF1196.5
aF11.0739
aa(lp1810
F0.0
aF942.5365195996486
aS'B3c'
p1811
aF0.006
aF1.1925
aF1.4418
aF71.5
aF0.2769
aa(lp1812
F0.0
aF941.7728151192268
ag1811
aF0.006
aF1.1925
aF1.4418
aF656.5
aF0.2769
aa(lp1813
F0.0
aF965.5323483370985
aS'B3c'
p1814
aF0.006
aF1.1925
aF1.4418
aF1196.5
aF0.2769
aa(lp1815
F0.0
aF931.8715016595892
ag1811
aF0.006
aF1.1925
aF1.4418
aF71.5
aF1.3841999999999999
aa(lp1816
F0.0
aF931.048949768418
ag1811
aF0.006
aF1.1925
aF1.4418
aF656.5
aF1.3841999999999999
aa(lp1817
F0.0
aF954.7801636618194
ag1814
aF0.006
aF1.1925
aF1.4418
aF1196.5
aF1.3841999999999999
aa(lp1818
F0.0052295939856130905
aF919.0949638686966
aS'B3c'
p1819
aF0.006
aF1.1925
aF1.4418
aF71.5
aF2.7600000000000002
aa(lp1820
F0.0010757413290161354
aF917.8319083948213
ag1819
aF0.006
aF1.1925
aF1.4418
aF656.5
aF2.7600000000000002
aa(lp1821
F0.0
aF941.4296040391173
aS'B3c'
p1822
aF0.006
aF1.1925
aF1.4418
aF1196.5
aF2.7600000000000002
aa(lp1823
F0.017129877054644648
aF893.4270537968227
ag1819
aF0.006
aF1.1925
aF1.4418
aF71.5
aF5.5371
aa(lp1824
F0.0035236610641937068
aF891.180396888399
ag1819
aF0.006
aF1.1925
aF1.4418
aF656.5
aF5.5371
aa(lp1825
F0.0
aF914.4833069715384
ag1822
aF0.006
aF1.1925
aF1.4418
aF1196.5
aF5.5371
aa(lp1826
F1.2371853378764022
aF850.8292672222083
aS'B3c'
p1827
aF0.006
aF1.1925
aF1.4418
aF71.5
aF11.0739
aa(lp1828
F0.2544922996446367
aF840.5898622767003
ag1827
aF0.006
aF1.1925
aF1.4418
aF656.5
aF11.0739
aa(lp1829
F0.0
aF861.4132500934581
aS'B3c'
p1830
aF0.006
aF1.1925
aF1.4418
aF1196.5
aF11.0739
aa(lp1831
F0.0
aF864.1866352643908
ag1811
aF0.5
aF1.1925
aF1.4418
aF71.5
aF0.2769
aa(lp1832
F0.0
aF854.6658229149933
ag1811
aF0.5
aF1.1925
aF1.4418
aF656.5
aF0.2769
aa(lp1833
F0.0
aF878.2346585759707
ag1814
aF0.5
aF1.1925
aF1.4418
aF1196.5
aF0.2769
aa(lp1834
F0.0
aF854.6409859583355
ag1811
aF0.5
aF1.1925
aF1.4418
aF71.5
aF1.3841999999999999
aa(lp1835
F0.0
aF844.1821470443005
ag1811
aF0.5
aF1.1925
aF1.4418
aF656.5
aF1.3841999999999999
aa(lp1836
F0.0
aF867.4922796086897
ag1814
aF0.5
aF1.1925
aF1.4418
aF1196.5
aF1.3841999999999999
aa(lp1837
F0.7228461020114093
aF843.9484324090292
ag1819
aF0.5
aF1.1925
aF1.4418
aF71.5
aF2.7600000000000002
aa(lp1838
F0.1486913570328969
aF831.490267455745
ag1819
aF0.5
aF1.1925
aF1.4418
aF656.5
aF2.7600000000000002
aa(lp1839
F0.0
aF854.2253397519347
ag1822
aF0.5
aF1.1925
aF1.4418
aF1196.5
aF2.7600000000000002
aa(lp1840
F2.367729672886438
aF822.6652876956446
ag1819
aF0.5
aF1.1925
aF1.4418
aF71.5
aF5.5371
aa(lp1841
F0.4870482626507745
aF805.9570899871806
ag1819
aF0.5
aF1.1925
aF1.4418
aF656.5
aF5.5371
aa(lp1842
F0.0
aF827.4661934181788
ag1822
aF0.5
aF1.1925
aF1.4418
aF1196.5
aF5.5371
aa(lp1843
F10.56801577158681
aF787.042848478307
ag1827
aF0.5
aF1.1925
aF1.4418
aF71.5
aF11.0739
aa(lp1844
F2.17386882470523
aF758.7299861416852
ag1827
aF0.5
aF1.1925
aF1.4418
aF656.5
aF11.0739
aa(lp1845
F0.0
aF776.1645148870339
ag1830
aF0.5
aF1.1925
aF1.4418
aF1196.5
aF11.0739
aa(lp1846
F1.71363201264881
aF831.3865359821427
aS'B3c'
p1847
aF0.75
aF1.1925
aF1.4418
aF71.5
aF0.2769
aa(lp1848
F0.35249864211309523
aF816.190011875
ag1847
aF0.75
aF1.1925
aF1.4418
aF656.5
aF0.2769
aa(lp1849
F0.0
aF838.8089039558532
aS'B3c'
p1850
aF0.75
aF1.1925
aF1.4418
aF1196.5
aF0.2769
aa(lp1851
F1.9440797759318893
aF822.3993096492811
ag1847
aF0.75
aF1.1925
aF1.4418
aF71.5
aF1.3841999999999999
aa(lp1852
F0.3999023571672523
aF805.8719923946949
ag1847
aF0.75
aF1.1925
aF1.4418
aF656.5
aF1.3841999999999999
aa(lp1853
F0.0
aF828.1113266522194
ag1850
aF0.75
aF1.1925
aF1.4418
aF1196.5
aF1.3841999999999999
aa(lp1854
F3.0717785255864793
aF812.4363057907553
aS'B3c'
p1855
aF0.75
aF1.1925
aF1.4418
aF71.5
aF2.7600000000000002
aa(lp1856
F0.6318729757316383
aF793.4800863984863
ag1855
aF0.75
aF1.1925
aF1.4418
aF656.5
aF2.7600000000000002
aa(lp1857
F0.0
aF814.9795144128125
aS'B3c'
p1858
aF0.75
aF1.1925
aF1.4418
aF1196.5
aF2.7600000000000002
aa(lp1859
F5.564335900740815
aF792.634963394682
ag1855
aF0.75
aF1.1925
aF1.4418
aF71.5
aF5.5371
aa(lp1860
F1.1445986272399642
aF768.5766150974928
ag1855
aF0.75
aF1.1925
aF1.4418
aF656.5
aF5.5371
aa(lp1861
F0.0
aF788.51355212953
ag1858
aF0.75
aF1.1925
aF1.4418
aF1196.5
aF5.5371
aa(lp1862
F15.252438514343758
aF759.2226622287776
aS'B3c'
p1863
aF0.75
aF1.1925
aF1.4418
aF71.5
aF11.0739
aa(lp1864
F3.3353945151958615
aF723.1373000242356
ag1863
aF0.75
aF1.1925
aF1.4418
aF656.5
aF11.0739
aa(lp1865
F0.1595480564200093
aF738.5195998965742
aS'B3c'
p1866
aF0.75
aF1.1925
aF1.4418
aF1196.5
aF11.0739
aa(lp1867
F4.569685367063493
aF803.1535379662698
ag1847
aF1.0
aF1.1925
aF1.4418
aF71.5
aF0.2769
aa(lp1868
F0.9399963789682538
aF781.4519840972222
ag1847
aF1.0
aF1.1925
aF1.4418
aF656.5
aF0.2769
aa(lp1869
F0.0
aF802.551974785053
ag1850
aF1.0
aF1.1925
aF1.4418
aF1196.5
aF0.2769
aa(lp1870
F5.184212735818371
aF794.7193618539119
ag1847
aF1.0
aF1.1925
aF1.4418
aF71.5
aF1.3841999999999999
aa(lp1871
F1.0664062857793393
aF771.329023013813
ag1847
aF1.0
aF1.1925
aF1.4418
aF656.5
aF1.3841999999999999
aa(lp1872
F0.0
aF791.9257586522754
ag1850
aF1.0
aF1.1925
aF1.4418
aF1196.5
aF1.3841999999999999
aa(lp1873
F6.744555065544322
aF785.2691755496602
ag1855
aF1.0
aF1.1925
aF1.4418
aF71.5
aF2.7600000000000002
aa(lp1874
F1.3873728342565712
aF759.2598929154292
ag1855
aF1.0
aF1.1925
aF1.4418
aF656.5
aF2.7600000000000002
aa(lp1875
F0.0
aF778.9909473115705
ag1858
aF1.0
aF1.1925
aF1.4418
aF1196.5
aF2.7600000000000002
aa(lp1876
F10.098963083523822
aF766.458163143138
ag1855
aF1.0
aF1.1925
aF1.4418
aF71.5
aF5.5371
aa(lp1877
F2.0773834448796453
aF735.0286262129315
ag1855
aF1.0
aF1.1925
aF1.4418
aF656.5
aF5.5371
aa(lp1878
F0.0
aF752.9504838391907
ag1858
aF1.0
aF1.1925
aF1.4418
aF1196.5
aF5.5371
aa(lp1879
F19.911756299603177
aF734.3760693378285
ag1863
aF1.0
aF1.1925
aF1.4418
aF71.5
aF11.0739
aa(lp1880
F4.623707735831193
aF691.4341983760621
ag1863
aF1.0
aF1.1925
aF1.4418
aF656.5
aF11.0739
aa(lp1881
F0.4254614837866914
aF704.539456561066
ag1866
aF1.0
aF1.1925
aF1.4418
aF1196.5
aF11.0739
aa(lp1882
F7.425738721478177
aF774.9205399503968
ag1847
aF1.25
aF1.1925
aF1.4418
aF71.5
aF0.2769
aa(lp1883
F1.5274941158234123
aF746.7139563194444
ag1847
aF1.25
aF1.1925
aF1.4418
aF656.5
aF0.2769
aa(lp1884
F0.0
aF766.2950456142526
ag1850
aF1.25
aF1.1925
aF1.4418
aF1196.5
aF0.2769
aa(lp1885
F8.424345695704853
aF767.0394140585425
ag1847
aF1.25
aF1.1925
aF1.4418
aF71.5
aF1.3841999999999999
aa(lp1886
F1.7329102143914263
aF736.786053632931
ag1847
aF1.25
aF1.1925
aF1.4418
aF656.5
aF1.3841999999999999
aa(lp1887
F0.0
aF755.7401906523314
ag1850
aF1.25
aF1.1925
aF1.4418
aF1196.5
aF1.3841999999999999
aa(lp1888
F10.417331605502167
aF758.1020453085652
ag1855
aF1.25
aF1.1925
aF1.4418
aF71.5
aF2.7600000000000002
aa(lp1889
F2.1428726927815043
aF725.0396994323721
ag1855
aF1.25
aF1.1925
aF1.4418
aF656.5
aF2.7600000000000002
aa(lp1890
F0.0
aF743.0023802103286
ag1858
aF1.25
aF1.1925
aF1.4418
aF1196.5
aF2.7600000000000002
aa(lp1891
F14.633590266306827
aF740.281362891594
ag1855
aF1.25
aF1.1925
aF1.4418
aF71.5
aF5.5371
aa(lp1892
F3.010168262519327
aF701.4806373283702
ag1855
aF1.25
aF1.1925
aF1.4418
aF656.5
aF5.5371
aa(lp1893
F0.0
aF717.3874155488515
ag1858
aF1.25
aF1.1925
aF1.4418
aF1196.5
aF5.5371
aa(lp1894
F24.571074084862598
aF709.5294764468794
ag1863
aF1.25
aF1.1925
aF1.4418
aF71.5
aF11.0739
aa(lp1895
F5.912020956466526
aF659.7310967278886
ag1863
aF1.25
aF1.1925
aF1.4418
aF656.5
aF11.0739
aa(lp1896
F0.6913749111533735
aF670.5593132255578
ag1866
aF1.25
aF1.1925
aF1.4418
aF1196.5
aF11.0739
aa(lp1897
F10.284340234375001
aF748.204766673177
aS'B3c'
p1898
aF1.5
aF1.1925
aF1.4418
aF71.5
aF0.2769
aa(lp1899
F2.115516015625
aF713.8933715559895
ag1898
aF1.5
aF1.1925
aF1.4418
aF656.5
aF0.2769
aa(lp1900
F0.0
aF731.8683820833332
aS'B3c'
p1901
aF1.5
aF1.1925
aF1.4418
aF1196.5
aF0.2769
aa(lp1902
F11.595737218237705
aF740.8019581827043
ag1898
aF1.5
aF1.1925
aF1.4418
aF71.5
aF1.3841999999999999
aa(lp1903
F2.385273847336066
aF704.1869222601463
ag1898
aF1.5
aF1.1925
aF1.4418
aF656.5
aF1.3841999999999999
aa(lp1904
F0.0
aF721.4257734947063
ag1901
aF1.5
aF1.1925
aF1.4418
aF1196.5
aF1.3841999999999999
aa(lp1905
F13.933668942711986
aF732.3141580551967
aS'B3c'
p1906
aF1.5
aF1.1925
aF1.4418
aF71.5
aF2.7600000000000002
aa(lp1907
F2.9056485765592153
aF692.786998226338
ag1906
aF1.5
aF1.1925
aF1.4418
aF656.5
aF2.7600000000000002
aa(lp1908
F0.03180520409950949
aF708.9285206440157
aS'B3c'
p1909
aF1.5
aF1.1925
aF1.4418
aF1196.5
aF2.7600000000000002
aa(lp1910
F18.83498300452764
aF715.3637449193658
ag1906
aF1.5
aF1.1925
aF1.4418
aF71.5
aF5.5371
aa(lp1911
F4.003646526393877
aF669.9455381577483
ag1906
aF1.5
aF1.1925
aF1.4418
aF656.5
aF5.5371
aa(lp1912
F0.10418002571926349
aF683.825113962251
ag1909
aF1.5
aF1.1925
aF1.4418
aF1196.5
aF5.5371
aa(lp1913
F29.041402964805933
aF685.8046888404435
aS'B3c'
p1914
aF1.5
aF1.1925
aF1.4418
aF71.5
aF11.0739
aa(lp1915
F7.4291190485066565
aF630.0128316211749
ag1914
aF1.5
aF1.1925
aF1.4418
aF656.5
aF11.0739
aa(lp1916
F1.1730475865534236
aF638.6325639551636
aS'B3c'
p1917
aF1.5
aF1.1925
aF1.4418
aF1196.5
aF11.0739
aa(lp1918
F18.884352278645835
aF682.4710818587239
ag1898
aF2.25
aF1.1925
aF1.4418
aF71.5
aF0.2769
aa(lp1919
F3.884561263020834
aF633.6473259016927
ag1898
aF2.25
aF1.1925
aF1.4418
aF656.5
aF0.2769
aa(lp1920
F0.0
aF645.9759150694445
ag1901
aF2.25
aF1.1925
aF1.4418
aF1196.5
aF0.2769
aa(lp1921
F20.45686813097678
aF675.7932637907346
ag1898
aF2.25
aF1.1925
aF1.4418
aF71.5
aF1.3841999999999999
aa(lp1922
F4.2080319373292365
aF624.8559892187144
ag1898
aF2.25
aF1.1925
aF1.4418
aF656.5
aF1.3841999999999999
aa(lp1923
F0.0
aF636.2584550238596
ag1901
aF2.25
aF1.1925
aF1.4418
aF1196.5
aF1.3841999999999999
aa(lp1924
F22.99650852823523
aF668.0533046784941
ag1906
aF2.25
aF1.1925
aF1.4418
aF71.5
aF2.7600000000000002
aa(lp1925
F5.263098467793741
aF614.7200712399538
ag1906
aF2.25
aF1.1925
aF1.4418
aF656.5
aF2.7600000000000002
aa(lp1926
F0.42937025534337775
aF624.896663526903
ag1909
aF2.25
aF1.1925
aF1.4418
aF1196.5
aF2.7600000000000002
aa(lp1927
F28.27343399584921
aF652.5731226561816
ag1906
aF2.25
aF1.1925
aF1.4418
aF71.5
aF5.5371
aa(lp1928
F7.560669057248781
aF594.4626929283052
ag1906
aF2.25
aF1.1925
aF1.4418
aF656.5
aF5.5371
aa(lp1929
F1.4064303472100559
aF602.1454928879667
ag1909
aF2.25
aF1.1925
aF1.4418
aF1196.5
aF5.5371
aa(lp1930
F40.65699500413317
aF625.2874762240124
ag1914
aF2.25
aF1.1925
aF1.4418
aF71.5
aF11.0739
aa(lp1931
F14.153869602972641
aF559.7139834449019
ag1914
aF2.25
aF1.1925
aF1.4418
aF656.5
aF11.0739
aa(lp1932
F4.667778469070568
aF562.3595597625633
ag1917
aF2.25
aF1.1925
aF1.4418
aF1196.5
aF11.0739
aa(lp1933
F28.906142764756943
aF608.2494165885416
aS'B3c'
p1934
aF3.45
aF1.1925
aF1.4418
aF71.5
aF0.2769
aa(lp1935
F8.17110383246528
aF550.7210954947916
ag1934
aF3.45
aF1.1925
aF1.4418
aF656.5
aF0.2769
aa(lp1936
F2.7702268807870376
aF557.1062470225694
aS'B3c'
p1937
aF3.45
aF1.1925
aF1.4418
aF1196.5
aF0.2769
aa(lp1938
F30.806102680489147
aF602.1976397453703
ag1934
aF3.45
aF1.1925
aF1.4418
aF71.5
aF1.3841999999999999
aa(lp1939
F9.695547883414921
aF543.1464292376289
ag1934
aF3.45
aF1.1925
aF1.4418
aF656.5
aF1.3841999999999999
aa(lp1940
F3.734437951578628
aF548.5969225328564
ag1937
aF3.45
aF1.1925
aF1.4418
aF1196.5
aF1.3841999999999999
aa(lp1941
F33.78654246464514
aF595.1883397099223
aS'B3c'
p1942
aF3.45
aF1.1925
aF1.4418
aF71.5
aF2.7600000000000002
aa(lp1943
F11.759432644363663
aF534.4927029154378
ag1942
aF3.45
aF1.1925
aF1.4418
aF656.5
aF2.7600000000000002
aa(lp1944
F4.96850069605849
aF538.771756365108
aS'B3c'
p1945
aF3.45
aF1.1925
aF1.4418
aF1196.5
aF2.7600000000000002
aa(lp1946
F39.96196454507075
aF581.1708901932534
ag1942
aF3.45
aF1.1925
aF1.4418
aF71.5
aF5.5371
aa(lp1947
F15.969097069232756
aF517.2195976770845
ag1942
aF3.45
aF1.1925
aF1.4418
aF656.5
aF5.5371
aa(lp1948
F7.468764606388208
aF519.1314518425245
ag1945
aF3.45
aF1.1925
aF1.4418
aF1196.5
aF5.5371
aa(lp1949
F52.648387577440644
aF556.2339112989496
aS'B3c'
p1950
aF3.45
aF1.1925
aF1.4418
aF71.5
aF11.0739
aa(lp1951
F25.123282794850745
aF487.6277356149507
ag1950
aF3.45
aF1.1925
aF1.4418
aF656.5
aF11.0739
aa(lp1952
F14.117163582968344
aF485.39027718154483
aS'B3c'
p1953
aF3.45
aF1.1925
aF1.4418
aF1196.5
aF11.0739
aa(lp1954
F84.35716510416667
aF232.41424677083336
ag1934
aF13.8
aF1.1925
aF1.4418
aF71.5
aF0.2769
aa(lp1955
F74.38149322916667
aF197.45972489583335
ag1934
aF13.8
aF1.1925
aF1.4418
aF656.5
aF0.2769
aa(lp1956
F69.41010597222221
aF192.18162354166668
ag1937
aF13.8
aF1.1925
aF1.4418
aF1196.5
aF0.2769
aa(lp1957
F89.09139574795081
aF229.29184943875225
ag1934
aF13.8
aF1.1925
aF1.4418
aF71.5
aF1.3841999999999999
aa(lp1958
F78.16933785860655
aF194.5937940767305
ag1934
aF13.8
aF1.1925
aF1.4418
aF656.5
aF1.3841999999999999
aa(lp1959
F72.88828799939283
aF189.36506082802066
ag1937
aF13.8
aF1.1925
aF1.4418
aF1196.5
aF1.3841999999999999
aa(lp1960
F93.73705627598692
aF225.7079601328544
ag1942
aF13.8
aF1.1925
aF1.4418
aF71.5
aF2.7600000000000002
aa(lp1961
F82.71553488495678
aF191.31527434974305
ag1942
aF13.8
aF1.1925
aF1.4418
aF656.5
aF2.7600000000000002
aa(lp1962
F77.33259834559682
aF186.13697904189053
ag1945
aF13.8
aF1.1925
aF1.4418
aF1196.5
aF2.7600000000000002
aa(lp1963
F102.79665577843961
aF218.54974188930737
ag1942
aF13.8
aF1.1925
aF1.4418
aF71.5
aF5.5371
aa(lp1964
F91.85103270555943
aF184.77004043958772
ag1942
aF13.8
aF1.1925
aF1.4418
aF656.5
aF5.5371
aa(lp1965
F86.33513896285913
aF179.69075396519509
ag1945
aF13.8
aF1.1925
aF1.4418
aF1196.5
aF5.5371
aa(lp1966
F121.8322246326072
aF206.2120450250692
ag1950
aF13.8
aF1.1925
aF1.4418
aF71.5
aF11.0739
aa(lp1967
F111.06615966891425
aF173.58557316303592
ag1950
aF13.8
aF1.1925
aF1.4418
aF656.5
aF11.0739
aa(lp1968
F105.82882181592902
aF168.77170258471642
ag1953
aF13.8
aF1.1925
aF1.4418
aF1196.5
aF11.0739
aa.