(lp0
(lp1
F0.0
aF4.847
aS'A4c'
p2
aF0.0006
aF0.0
aF0.0
aF71.5
aF0.46199999999999997
aa(lp3
F0.0
aF5.631
aS'A4c'
p4
aF0.0006
aF0.0
aF0.0
aF71.5
aF1.6110000000000002
aa(lp5
F5.179
aF6.663
aS'A4c'
p6
aF0.0006
aF0.0
aF0.0
aF71.5
aF3.12
aa(lp7
F27.447
aF8.674
aS'A4c'
p8
aF0.0006
aF0.0
aF0.0
aF71.5
aF6.09
aa(lp9
F71.9
aF12.523
aS'A4c'
p10
aF0.0006
aF0.0
aF0.0
aF71.5
aF12.0
aa(lp11
F0.0
aF19.312
aS'A4c'
p12
aF0.0006
aF0.0497
aF0.0601
aF71.5
aF0.46199999999999997
aa(lp13
F0.0
aF18.703
aS'A4c'
p14
aF0.0006
aF0.0497
aF0.0601
aF71.5
aF1.6110000000000002
aa(lp15
F0.0
aF18.978
aS'A4c'
p16
aF0.0006
aF0.0497
aF0.0601
aF71.5
aF3.12
aa(lp17
F16.428
aF20.001
aS'A4c'
p18
aF0.0006
aF0.0497
aF0.0601
aF71.5
aF6.09
aa(lp19
F56.032
aF22.633
aS'A4c'
p20
aF0.0006
aF0.0497
aF0.0601
aF71.5
aF12.0
aa(lp21
F0.0
aF31.726
aS'A4c'
p22
aF0.0006
aF0.0994
aF0.1202
aF71.5
aF0.46199999999999997
aa(lp23
F0.0
aF30.183
aS'A4c'
p24
aF0.0006
aF0.0994
aF0.1202
aF71.5
aF1.6110000000000002
aa(lp25
F0.0
aF29.838
aS'A4c'
p26
aF0.0006
aF0.0994
aF0.1202
aF71.5
aF3.12
aa(lp27
F9.438
aF29.899
aS'A4c'
p28
aF0.0006
aF0.0994
aF0.1202
aF71.5
aF6.09
aa(lp29
F47.217
aF31.237
aS'A4c'
p30
aF0.0006
aF0.0994
aF0.1202
aF71.5
aF12.0
aa(lp31
F0.0
aF44.147
aS'A4c'
p32
aF0.0006
aF0.1491
aF0.1802
aF71.5
aF0.46199999999999997
aa(lp33
F0.0
aF41.672
aS'A4c'
p34
aF0.0006
aF0.1491
aF0.1802
aF71.5
aF1.6110000000000002
aa(lp35
F0.0
aF40.698
aS'A4c'
p36
aF0.0006
aF0.1491
aF0.1802
aF71.5
aF3.12
aa(lp37
F5.822
aF39.83
aS'A4c'
p38
aF0.0006
aF0.1491
aF0.1802
aF71.5
aF6.09
aa(lp39
F40.194
aF39.885
aS'A4c'
p40
aF0.0006
aF0.1491
aF0.1802
aF71.5
aF12.0
aa(lp41
F0.0
aF56.567
aS'A4c'
p42
aF0.0006
aF0.1988
aF0.2403
aF71.5
aF0.46199999999999997
aa(lp43
F0.0
aF53.161
aS'A4c'
p44
aF0.0006
aF0.1988
aF0.2403
aF71.5
aF1.6110000000000002
aa(lp45
F0.0
aF51.557
aS'A4c'
p46
aF0.0006
aF0.1988
aF0.2403
aF71.5
aF3.12
aa(lp47
F4.319
aF49.767
aS'A4c'
p48
aF0.0006
aF0.1988
aF0.2403
aF71.5
aF6.09
aa(lp49
F35.963
aF48.535
aS'A4c'
p50
aF0.0006
aF0.1988
aF0.2403
aF71.5
aF12.0
aa(lp51
F0.0
aF81.414
aS'A4c'
p52
aF0.0006
aF0.2981
aF0.3605
aF71.5
aF0.46199999999999997
aa(lp53
F0.0
aF76.147
aS'A4c'
p54
aF0.0006
aF0.2981
aF0.3605
aF71.5
aF1.6110000000000002
aa(lp55
F0.0
aF73.283
aS'A4c'
p56
aF0.0006
aF0.2981
aF0.3605
aF71.5
aF3.12
aa(lp57
F0.0
aF69.64
aS'A4c'
p58
aF0.0006
aF0.2981
aF0.3605
aF71.5
aF6.09
aa(lp59
F29.791
aF65.841
aS'A4c'
p60
aF0.0006
aF0.2981
aF0.3605
aF71.5
aF12.0
aa(lp61
F0.0
aF98.535
aS'A4c'
p62
aF0.0006
aF0.3975
aF0.4806
aF71.5
aF0.46199999999999997
aa(lp63
F0.0
aF91.81
aS'A4c'
p64
aF0.0006
aF0.3975
aF0.4806
aF71.5
aF1.6110000000000002
aa(lp65
F0.0
aF88.034
aS'A4c'
p66
aF0.0006
aF0.3975
aF0.4806
aF71.5
aF3.12
aa(lp67
F0.0
aF83.076
aS'A4c'
p68
aF0.0006
aF0.3975
aF0.4806
aF71.5
aF6.09
aa(lp69
F25.864
aF77.494
aS'A4c'
p70
aF0.0006
aF0.3975
aF0.4806
aF71.5
aF12.0
aa(lp71
F0.0
aF4.925
aS'A4c'
p72
aF0.5
aF0.0
aF0.0
aF71.5
aF0.46199999999999997
aa(lp73
F6.992
aF5.742
aS'A4c'
p74
aF0.5
aF0.0
aF0.0
aF71.5
aF1.6110000000000002
aa(lp75
F18.437
aF6.81
aS'A4c'
p76
aF0.5
aF0.0
aF0.0
aF71.5
aF3.12
aa(lp77
F40.643
aF8.874
aS'A4c'
p78
aF0.5
aF0.0
aF0.0
aF71.5
aF6.09
aa(lp79
F86.294
aF12.783
aS'A4c'
p80
aF0.5
aF0.0
aF0.0
aF71.5
aF12.0
aa(lp81
F0.0
aF15.999
aS'A4c'
p82
aF0.5
aF0.0497
aF0.0601
aF71.5
aF0.46199999999999997
aa(lp83
F0.0
aF16.366
aS'A4c'
p84
aF0.5
aF0.0497
aF0.0601
aF71.5
aF1.6110000000000002
aa(lp85
F6.455
aF17.005
aS'A4c'
p86
aF0.5
aF0.0497
aF0.0601
aF71.5
aF3.12
aa(lp87
F27.105
aF18.402
aS'A4c'
p88
aF0.5
aF0.0497
aF0.0601
aF71.5
aF6.09
aa(lp89
F69.942
aF21.612
aS'A4c'
p90
aF0.5
aF0.0497
aF0.0601
aF71.5
aF12.0
aa(lp91
F0.0
aF26.479
aS'A4c'
p92
aF0.5
aF0.0994
aF0.1202
aF71.5
aF0.46199999999999997
aa(lp93
F0.0
aF26.416
aS'A4c'
p94
aF0.5
aF0.0994
aF0.1202
aF71.5
aF1.6110000000000002
aa(lp95
F1.503
aF26.544
aS'A4c'
p96
aF0.5
aF0.0994
aF0.1202
aF71.5
aF3.12
aa(lp97
F20.792
aF27.171
aS'A4c'
p98
aF0.5
aF0.0994
aF0.1202
aF71.5
aF6.09
aa(lp99
F59.162
aF29.193
aS'A4c'
p100
aF0.5
aF0.0994
aF0.1202
aF71.5
aF12.0
aa(lp101
F0.0
aF36.961
aS'A4c'
p102
aF0.5
aF0.1491
aF0.1802
aF71.5
aF0.46199999999999997
aa(lp103
F0.0
aF36.469
aS'A4c'
p104
aF0.5
aF0.1491
aF0.1802
aF71.5
aF1.6110000000000002
aa(lp105
F0.0
aF36.123
aS'A4c'
p106
aF0.5
aF0.1491
aF0.1802
aF71.5
aF3.12
aa(lp107
F16.5
aF35.961
aS'A4c'
p108
aF0.5
aF0.1491
aF0.1802
aF71.5
aF6.09
aa(lp109
F52.762
aF36.91
aS'A4c'
p110
aF0.5
aF0.1491
aF0.1802
aF71.5
aF12.0
aa(lp111
F0.0
aF47.447
aS'A4c'
p112
aF0.5
aF0.1988
aF0.2403
aF71.5
aF0.46199999999999997
aa(lp113
F0.0
aF46.522
aS'A4c'
p114
aF0.5
aF0.1988
aF0.2403
aF71.5
aF1.6110000000000002
aa(lp115
F0.0
aF45.702
aS'A4c'
p116
aF0.5
aF0.1988
aF0.2403
aF71.5
aF3.12
aa(lp117
F11.167
aF44.766
aS'A4c'
p118
aF0.5
aF0.1988
aF0.2403
aF71.5
aF6.09
aa(lp119
F47.99
aF44.635
aS'A4c'
p120
aF0.5
aF0.1988
aF0.2403
aF71.5
aF12.0
aa(lp121
F0.0
aF68.424
aS'A4c'
p122
aF0.5
aF0.2981
aF0.3605
aF71.5
aF0.46199999999999997
aa(lp123
F0.0
aF66.629
aS'A4c'
p124
aF0.5
aF0.2981
aF0.3605
aF71.5
aF1.6110000000000002
aa(lp125
F0.0
aF64.859
aS'A4c'
p126
aF0.5
aF0.2981
aF0.3605
aF71.5
aF3.12
aa(lp127
F6.673
aF62.404
aS'A4c'
p128
aF0.5
aF0.2981
aF0.3605
aF71.5
aF6.09
aa(lp129
F40.996
aF60.094
aS'A4c'
p130
aF0.5
aF0.2981
aF0.3605
aF71.5
aF12.0
aa(lp131
F0.0
aF83.452
aS'A4c'
p132
aF0.5
aF0.3975
aF0.4806
aF71.5
aF0.46199999999999997
aa(lp133
F0.0
aF81.002
aS'A4c'
p134
aF0.5
aF0.3975
aF0.4806
aF71.5
aF1.6110000000000002
aa(lp135
F0.0
aF78.518
aS'A4c'
p136
aF0.5
aF0.3975
aF0.4806
aF71.5
aF3.12
aa(lp137
F5.014
aF74.94
aS'A4c'
p138
aF0.5
aF0.3975
aF0.4806
aF71.5
aF6.09
aa(lp139
F35.424
aF71.029
aS'A4c'
p140
aF0.5
aF0.3975
aF0.4806
aF71.5
aF12.0
aa(lp141
F4.041
aF5.001
aS'A4c'
p142
aF0.75
aF0.0
aF0.0
aF71.5
aF0.46199999999999997
aa(lp143
F10.967
aF5.826
aS'A4c'
p144
aF0.75
aF0.0
aF0.0
aF71.5
aF1.6110000000000002
aa(lp145
F23.758
aF6.904
aS'A4c'
p146
aF0.75
aF0.0
aF0.0
aF71.5
aF3.12
aa(lp147
F46.386
aF8.982
aS'A4c'
p148
aF0.75
aF0.0
aF0.0
aF71.5
aF6.09
aa(lp149
F92.285
aF12.907
aS'A4c'
p150
aF0.75
aF0.0
aF0.0
aF71.5
aF12.0
aa(lp151
F0.0
aF15.031
aS'A4c'
p152
aF0.75
aF0.0497
aF0.0601
aF71.5
aF0.46199999999999997
aa(lp153
F1.498
aF15.527
aS'A4c'
p154
aF0.75
aF0.0497
aF0.0601
aF71.5
aF1.6110000000000002
aa(lp155
F11.183
aF16.259
aS'A4c'
p156
aF0.75
aF0.0497
aF0.0601
aF71.5
aF3.12
aa(lp157
F32.112
aF17.795
aS'A4c'
p158
aF0.75
aF0.0497
aF0.0601
aF71.5
aF6.09
aa(lp159
F75.959
aF21.23
aS'A4c'
p160
aF0.75
aF0.0497
aF0.0601
aF71.5
aF12.0
aa(lp161
F0.0
aF24.877
aS'A4c'
p162
aF0.75
aF0.0994
aF0.1202
aF71.5
aF0.46199999999999997
aa(lp163
F0.0
aF24.974
aS'A4c'
p164
aF0.75
aF0.0994
aF0.1202
aF71.5
aF1.6110000000000002
aa(lp165
F6.105
aF25.245
aS'A4c'
p166
aF0.75
aF0.0994
aF0.1202
aF71.5
aF3.12
aa(lp167
F25.46
aF26.066
aS'A4c'
p168
aF0.75
aF0.0994
aF0.1202
aF71.5
aF6.09
aa(lp169
F64.743
aF28.36
aS'A4c'
p170
aF0.75
aF0.0994
aF0.1202
aF71.5
aF12.0
aa(lp171
F0.0
aF34.73
aS'A4c'
p172
aF0.75
aF0.1491
aF0.1802
aF71.5
aF0.46199999999999997
aa(lp173
F0.0
aF34.45
aS'A4c'
p174
aF0.75
aF0.1491
aF0.1802
aF71.5
aF1.6110000000000002
aa(lp175
F2.969
aF34.282
aS'A4c'
p176
aF0.75
aF0.1491
aF0.1802
aF71.5
aF3.12
aa(lp177
F20.919
aF34.387
aS'A4c'
p178
aF0.75
aF0.1491
aF0.1802
aF71.5
aF6.09
aa(lp179
F58.056
aF35.676
aS'A4c'
p180
aF0.75
aF0.1491
aF0.1802
aF71.5
aF12.0
aa(lp181
F0.0
aF44.582
aS'A4c'
p182
aF0.75
aF0.1988
aF0.2403
aF71.5
aF0.46199999999999997
aa(lp183
F0.0
aF43.926
aS'A4c'
p184
aF0.75
aF0.1988
aF0.2403
aF71.5
aF1.6110000000000002
aa(lp185
F1.241
aF43.327
aS'A4c'
p186
aF0.75
aF0.1988
aF0.2403
aF71.5
aF3.12
aa(lp187
F17.44
aF42.708
aS'A4c'
p188
aF0.75
aF0.1988
aF0.2403
aF71.5
aF6.09
aa(lp189
F53.076
aF43.004
aS'A4c'
p190
aF0.75
aF0.1988
aF0.2403
aF71.5
aF12.0
aa(lp191
F0.0
aF64.291
aS'A4c'
p192
aF0.75
aF0.2981
aF0.3605
aF71.5
aF0.46199999999999997
aa(lp193
F0.0
aF62.877
aS'A4c'
p194
aF0.75
aF0.2981
aF0.3605
aF71.5
aF1.6110000000000002
aa(lp195
F0.0
aF61.418
aS'A4c'
p196
aF0.75
aF0.2981
aF0.3605
aF71.5
aF3.12
aa(lp197
F10.456
aF59.393
aS'A4c'
p198
aF0.75
aF0.2981
aF0.3605
aF71.5
aF6.09
aa(lp199
F45.843
aF57.674
aS'A4c'
p200
aF0.75
aF0.2981
aF0.3605
aF71.5
aF12.0
aa(lp201
F0.0
aF78.734
aS'A4c'
p202
aF0.75
aF0.3975
aF0.4806
aF71.5
aF0.46199999999999997
aa(lp203
F0.0
aF76.734
aS'A4c'
p204
aF0.75
aF0.3975
aF0.4806
aF71.5
aF1.6110000000000002
aa(lp205
F0.0
aF74.622
aS'A4c'
p206
aF0.75
aF0.3975
aF0.4806
aF71.5
aF3.12
aa(lp207
F7.057
aF71.543
aS'A4c'
p208
aF0.75
aF0.3975
aF0.4806
aF71.5
aF6.09
aa(lp209
F41.098
aF68.307
aS'A4c'
p210
aF0.75
aF0.3975
aF0.4806
aF71.5
aF12.0
aa(lp211
F8.653
aF5.086
aS'A4c'
p212
aF1.0
aF0.0
aF0.0
aF71.5
aF0.46199999999999997
aa(lp213
F18.24
aF5.917
aS'A4c'
p214
aF1.0
aF0.0
aF0.0
aF71.5
aF1.6110000000000002
aa(lp215
F28.777
aF7.001
aS'A4c'
p216
aF1.0
aF0.0
aF0.0
aF71.5
aF3.12
aa(lp217
F51.77
aF9.089
aS'A4c'
p218
aF1.0
aF0.0
aF0.0
aF71.5
aF6.09
aa(lp219
F97.883
aF13.026
aS'A4c'
p220
aF1.0
aF0.0
aF0.0
aF71.5
aF12.0
aa(lp221
F0.0
aF14.237
aS'A4c'
p222
aF1.0
aF0.0497
aF0.0601
aF71.5
aF0.46199999999999997
aa(lp223
F6.202
aF14.823
aS'A4c'
p224
aF1.0
aF0.0497
aF0.0601
aF71.5
aF1.6110000000000002
aa(lp225
F17.751
aF15.621
aS'A4c'
p226
aF1.0
aF0.0497
aF0.0601
aF71.5
aF3.12
aa(lp227
F36.933
aF17.288
aS'A4c'
p228
aF1.0
aF0.0497
aF0.0601
aF71.5
aF6.09
aa(lp229
F81.645
aF20.904
aS'A4c'
p230
aF1.0
aF0.0497
aF0.0601
aF71.5
aF12.0
aa(lp231
F0.0
aF23.516
aS'A4c'
p232
aF1.0
aF0.0994
aF0.1202
aF71.5
aF0.46199999999999997
aa(lp233
F1.408
aF23.721
aS'A4c'
p234
aF1.0
aF0.0994
aF0.1202
aF71.5
aF1.6110000000000002
aa(lp235
F10.224
aF24.116
aS'A4c'
p236
aF1.0
aF0.0994
aF0.1202
aF71.5
aF3.12
aa(lp237
F29.955
aF25.093
aS'A4c'
p238
aF1.0
aF0.0994
aF0.1202
aF71.5
aF6.09
aa(lp239
F71.386
aF27.626
aS'A4c'
p240
aF1.0
aF0.0994
aF0.1202
aF71.5
aF12.0
aa(lp241
F0.0
aF32.818
aS'A4c'
p242
aF1.0
aF0.1491
aF0.1802
aF71.5
aF0.46199999999999997
aa(lp243
F0.0
aF32.683
aS'A4c'
p244
aF1.0
aF0.1491
aF0.1802
aF71.5
aF1.6110000000000002
aa(lp245
F6.295
aF32.656
aS'A4c'
p246
aF1.0
aF0.1491
aF0.1802
aF71.5
aF3.12
aa(lp247
F25.166
aF32.987
aS'A4c'
p248
aF1.0
aF0.1491
aF0.1802
aF71.5
aF6.09
aa(lp249
F63.124
aF34.574
aS'A4c'
p250
aF1.0
aF0.1491
aF0.1802
aF71.5
aF12.0
aa(lp251
F0.0
aF42.12
aS'A4c'
p252
aF1.0
aF0.1988
aF0.2403
aF71.5
aF0.46199999999999997
aa(lp253
F0.0
aF41.645
aS'A4c'
p254
aF1.0
aF0.1988
aF0.2403
aF71.5
aF1.6110000000000002
aa(lp255
F4.732
aF41.223
aS'A4c'
p256
aF1.0
aF0.1988
aF0.2403
aF71.5
aF3.12
aa(lp257
F21.528
aF40.882
aS'A4c'
p258
aF1.0
aF0.1988
aF0.2403
aF71.5
aF6.09
aa(lp259
F57.933
aF41.541
aS'A4c'
p260
aF1.0
aF0.1988
aF0.2403
aF71.5
aF12.0
aa(lp261
F0.0
aF60.723
aS'A4c'
p262
aF1.0
aF0.2981
aF0.3605
aF71.5
aF0.46199999999999997
aa(lp263
F0.0
aF59.568
aS'A4c'
p264
aF1.0
aF0.2981
aF0.3605
aF71.5
aF1.6110000000000002
aa(lp265
F1.253
aF58.356
aS'A4c'
p266
aF1.0
aF0.2981
aF0.3605
aF71.5
aF3.12
aa(lp267
F14.959
aF56.698
aS'A4c'
p268
aF1.0
aF0.2981
aF0.3605
aF71.5
aF6.09
aa(lp269
F50.46
aF55.492
aS'A4c'
p270
aF1.0
aF0.2981
aF0.3605
aF71.5
aF12.0
aa(lp271
F0.0
aF74.658
aS'A4c'
p272
aF1.0
aF0.3975
aF0.4806
aF71.5
aF0.46199999999999997
aa(lp273
F0.0
aF72.973
aS'A4c'
p274
aF1.0
aF0.3975
aF0.4806
aF71.5
aF1.6110000000000002
aa(lp275
F0.0
aF71.15
aS'A4c'
p276
aF1.0
aF0.3975
aF0.4806
aF71.5
aF3.12
aa(lp277
F10.634
aF68.495
aS'A4c'
p278
aF1.0
aF0.3975
aF0.4806
aF71.5
aF6.09
aa(lp279
F45.471
aF65.844
aS'A4c'
p280
aF1.0
aF0.3975
aF0.4806
aF71.5
aF12.0
aa(lp281
F15.014
aF5.176
aS'A4c'
p282
aF1.25
aF0.0
aF0.0
aF71.5
aF0.46199999999999997
aa(lp283
F22.939
aF6.009
aS'A4c'
p284
aF1.25
aF0.0
aF0.0
aF71.5
aF1.6110000000000002
aa(lp285
F33.513
aF7.097
aS'A4c'
p286
aF1.25
aF0.0
aF0.0
aF71.5
aF3.12
aa(lp287
F56.837
aF9.19
aS'A4c'
p288
aF1.25
aF0.0
aF0.0
aF71.5
aF6.09
aa(lp289
F103.118
aF13.133
aS'A4c'
p290
aF1.25
aF0.0
aF0.0
aF71.5
aF12.0
aa(lp291
F4.368
aF13.569
aS'A4c'
p292
aF1.25
aF0.0497
aF0.0601
aF71.5
aF0.46199999999999997
aa(lp293
F10.505
aF14.202
aS'A4c'
p294
aF1.25
aF0.0497
aF0.0601
aF71.5
aF1.6110000000000002
aa(lp295
F22.025
aF15.06
aS'A4c'
p296
aF1.25
aF0.0497
aF0.0601
aF71.5
aF3.12
aa(lp297
F42.901
aF15.389
aS'A4c'
p298
aF1.25
aF0.0497
aF0.0601
aF71.5
aF6.09
aa(lp299
F87.006
aF20.602
aS'A4c'
p300
aF1.25
aF0.0497
aF0.0601
aF71.5
aF12.0
aa(lp301
F0.0
aF22.316
aS'A4c'
p302
aF1.25
aF0.0994
aF0.1202
aF71.5
aF0.46199999999999997
aa(lp303
F5.537
aF22.614
aS'A4c'
p304
aF1.25
aF0.0994
aF0.1202
aF71.5
aF1.6110000000000002
aa(lp305
F15.979
aF23.094
aS'A4c'
p306
aF1.25
aF0.0994
aF0.1202
aF71.5
aF3.12
aa(lp307
F34.173
aF24.203
aS'A4c'
p308
aF1.25
aF0.0994
aF0.1202
aF71.5
aF6.09
aa(lp309
F76.518
aF26.943
aS'A4c'
p310
aF1.25
aF0.0994
aF0.1202
aF71.5
aF12.0
aa(lp311
F0.0
aF31.127
aS'A4c'
p312
aF1.25
aF0.1491
aF0.1802
aF71.5
aF0.46199999999999997
aa(lp313
F1.482
aF31.102
aS'A4c'
p314
aF1.25
aF0.1491
aF0.1802
aF71.5
aF1.6110000000000002
aa(lp315
F9.989
aF31.198
aS'A4c'
p316
aF1.25
aF0.1491
aF0.1802
aF71.5
aF3.12
aa(lp317
F29.163
aF31.713
aS'A4c'
p318
aF1.25
aF0.1491
aF0.1802
aF71.5
aF6.09
aa(lp319
F69.207
aF33.559
aS'A4c'
p320
aF1.25
aF0.1491
aF0.1802
aF71.5
aF12.0
aa(lp321
F0.0
aF39.937
aS'A4c'
p322
aF1.25
aF0.1988
aF0.2403
aF71.5
aF0.46199999999999997
aa(lp323
F0.0
aF39.602
aS'A4c'
p324
aF1.25
aF0.1988
aF0.2403
aF71.5
aF1.6110000000000002
aa(lp325
F6.656
aF39.323
aS'A4c'
p326
aF1.25
aF0.1988
aF0.2403
aF71.5
aF3.12
aa(lp327
F25.354
aF39.224
aS'A4c'
p328
aF1.25
aF0.1988
aF0.2403
aF71.5
aF6.09
aa(lp329
F63.701
aF40.198
aS'A4c'
p330
aF1.25
aF0.1988
aF0.2403
aF71.5
aF12.0
aa(lp331
F0.0
aF57.559
aS'A4c'
p332
aF1.25
aF0.2981
aF0.3605
aF71.5
aF0.46199999999999997
aa(lp333
F0.0
aF56.601
aS'A4c'
p334
aF1.25
aF0.2981
aF0.3605
aF71.5
aF1.6110000000000002
aa(lp335
F3.084
aF55.594
aS'A4c'
p336
aF1.25
aF0.2981
aF0.3605
aF71.5
aF3.12
aa(lp337
F19.69
aF54.254
aS'A4c'
p338
aF1.25
aF0.2981
aF0.3605
aF71.5
aF6.09
aa(lp339
F54.668
aF53.497
aS'A4c'
p340
aF1.25
aF0.2981
aF0.3605
aF71.5
aF12.0
aa(lp341
F0.0
aF71.048
aS'A4c'
p342
aF1.25
aF0.3975
aF0.4806
aF71.5
aF0.46199999999999997
aa(lp343
F0.0
aF69.599
aS'A4c'
p344
aF1.25
aF0.3975
aF0.4806
aF71.5
aF1.6110000000000002
aa(lp345
F1.331
aF68.017
aS'A4c'
p346
aF1.25
aF0.3975
aF0.4806
aF71.5
aF3.12
aa(lp347
F14.727
aF65.73
aS'A4c'
p348
aF1.25
aF0.3975
aF0.4806
aF71.5
aF6.09
aa(lp349
F49.407
aF63.594
aS'A4c'
p350
aF1.25
aF0.3975
aF0.4806
aF71.5
aF12.0
aa(lp351
F19.437
aF5.266
aS'A4c'
p352
aF1.5
aF0.0
aF0.0
aF71.5
aF0.46199999999999997
aa(lp353
F27.382
aF6.102
aS'A4c'
p354
aF1.5
aF0.0
aF0.0
aF71.5
aF1.6110000000000002
aa(lp355
F39.385
aF7.192
aS'A4c'
p356
aF1.5
aF0.0
aF0.0
aF71.5
aF3.12
aa(lp357
F61.606
aF9.289
aS'A4c'
p358
aF1.5
aF0.0
aF0.0
aF71.5
aF6.09
aa(lp359
F108.04
aF13.237
aS'A4c'
p360
aF1.5
aF0.0
aF0.0
aF71.5
aF12.0
aa(lp361
F8.004
aF11.595
aS'A4c'
p362
aF1.5
aF0.0497
aF0.0601
aF71.5
aF0.46199999999999997
aa(lp363
F16.482
aF12.308
aS'A4c'
p364
aF1.5
aF0.0497
aF0.0601
aF71.5
aF1.6110000000000002
aa(lp365
F26.149
aF13.261
aS'A4c'
p366
aF1.5
aF0.0497
aF0.0601
aF71.5
aF3.12
aa(lp367
F47.574
aF15.155
aS'A4c'
p368
aF1.5
aF0.0497
aF0.0601
aF71.5
aF6.09
aa(lp369
F92.117
aF18.933
aS'A4c'
p370
aF1.5
aF0.0497
aF0.0601
aF71.5
aF12.0
aa(lp371
F1.538
aF21.26
aS'A4c'
p372
aF1.5
aF0.0994
aF0.1202
aF71.5
aF0.46199999999999997
aa(lp373
F9.15
aF21.641
aS'A4c'
p374
aF1.5
aF0.0994
aF0.1202
aF71.5
aF1.6110000000000002
aa(lp375
F19.778
aF22.188
aS'A4c'
p376
aF1.5
aF0.0994
aF0.1202
aF71.5
aF3.12
aa(lp377
F39.482
aF23.417
aS'A4c'
p378
aF1.5
aF0.0994
aF0.1202
aF71.5
aF6.09
aa(lp379
F81.471
aF26.345
aS'A4c'
p380
aF1.5
aF0.0994
aF0.1202
aF71.5
aF12.0
aa(lp381
F0.0
aF29.628
aS'A4c'
p382
aF1.5
aF0.1491
aF0.1802
aF71.5
aF0.46199999999999997
aa(lp383
F5.484
aF29.692
aS'A4c'
p384
aF1.5
aF0.1491
aF0.1802
aF71.5
aF1.6110000000000002
aa(lp385
F14.235
aF29.901
aS'A4c'
p386
aF1.5
aF0.1491
aF0.1802
aF71.5
aF3.12
aa(lp387
F33.08
aF30.572
aS'A4c'
p388
aF1.5
aF0.1491
aF0.1802
aF71.5
aF6.09
aa(lp389
F73.962
aF32.647
aS'A4c'
p390
aF1.5
aF0.1491
aF0.1802
aF71.5
aF12.0
aa(lp391
F0.0
aF37.996
aS'A4c'
p392
aF1.5
aF0.1988
aF0.2403
aF71.5
aF0.46199999999999997
aa(lp393
F2.871
aF37.773
aS'A4c'
p394
aF1.5
aF0.1988
aF0.2403
aF71.5
aF1.6110000000000002
aa(lp395
F10.175
aF37.617
aS'A4c'
p396
aF1.5
aF0.1988
aF0.2403
aF71.5
aF3.12
aa(lp397
F29.107
aF37.731
aS'A4c'
p398
aF1.5
aF0.1988
aF0.2403
aF71.5
aF6.09
aa(lp399
F68.284
aF38.986
aS'A4c'
p400
aF1.5
aF0.1988
aF0.2403
aF71.5
aF12.0
aa(lp401
F0.0
aF54.732
aS'A4c'
p402
aF1.5
aF0.2981
aF0.3605
aF71.5
aF0.46199999999999997
aa(lp403
F0.0
aF53.935
aS'A4c'
p404
aF1.5
aF0.2981
aF0.3605
aF71.5
aF1.6110000000000002
aa(lp405
F5.929
aF53.101
aS'A4c'
p406
aF1.5
aF0.2981
aF0.3605
aF71.5
aF3.12
aa(lp407
F23.207
aF52.051
aS'A4c'
p408
aF1.5
aF0.2981
aF0.3605
aF71.5
aF6.09
aa(lp409
F58.814
aF51.68
aS'A4c'
p410
aF1.5
aF0.2981
aF0.3605
aF71.5
aF12.0
aa(lp411
F0.0
aF67.821
aS'A4c'
p412
aF1.5
aF0.3975
aF0.4806
aF71.5
aF0.46199999999999997
aa(lp413
F0.0
aF66.562
aS'A4c'
p414
aF1.5
aF0.3975
aF0.4806
aF71.5
aF1.6110000000000002
aa(lp415
F3.103
aF65.184
aS'A4c'
p416
aF1.5
aF0.3975
aF0.4806
aF71.5
aF3.12
aa(lp417
F19.178
aF63.221
aS'A4c'
p418
aF1.5
aF0.3975
aF0.4806
aF71.5
aF6.09
aa(lp419
F53.331
aF61.541
aS'A4c'
p420
aF1.5
aF0.3975
aF0.4806
aF71.5
aF12.0
aa(lp421
F32.55
aF5.526
aS'A4c'
p422
aF2.25
aF0.0
aF0.0
aF71.5
aF0.46199999999999997
aa(lp423
F40.924
aF6.363
aS'A4c'
p424
aF2.25
aF0.0
aF0.0
aF71.5
aF1.6110000000000002
aa(lp425
F52.084
aF7.454
aS'A4c'
p426
aF2.25
aF0.0
aF0.0
aF71.5
aF3.12
aa(lp427
F75.837
aF9.555
aS'A4c'
p428
aF2.25
aF0.0
aF0.0
aF71.5
aF6.09
aa(lp429
F121.17
aF13.509
aS'A4c'
p430
aF2.25
aF0.0
aF0.0
aF71.5
aF12.0
aa(lp431
F20.202
aF10.788
aS'A4c'
p432
aF2.25
aF0.0497
aF0.0601
aF71.5
aF0.46199999999999997
aa(lp433
F27.617
aF11.562
aS'A4c'
p434
aF2.25
aF0.0497
aF0.0601
aF71.5
aF1.6110000000000002
aa(lp435
F38.954
aF12.583
aS'A4c'
p436
aF2.25
aF0.0497
aF0.0601
aF71.5
aF3.12
aa(lp437
F60.388
aF14.599
aS'A4c'
p438
aF2.25
aF0.0497
aF0.0601
aF71.5
aF6.09
aa(lp439
F105.948
aF18.545
aS'A4c'
p440
aF2.25
aF0.0497
aF0.0601
aF71.5
aF12.0
aa(lp441
F12.978
aF18.718
aS'A4c'
p442
aF2.25
aF0.0994
aF0.1202
aF71.5
aF0.46199999999999997
aa(lp443
F21.047
aF19.231
aS'A4c'
p444
aF2.25
aF0.0994
aF0.1202
aF71.5
aF1.6110000000000002
aa(lp445
F30.506
aF19.946
aS'A4c'
p446
aF2.25
aF0.0994
aF0.1202
aF71.5
aF3.12
aa(lp447
F51.492
aF21.488
aS'A4c'
p448
aF2.25
aF0.0994
aF0.1202
aF71.5
aF6.09
aa(lp449
F95.045
aF24.865
aS'A4c'
p450
aF2.25
aF0.0994
aF0.1202
aF71.5
aF12.0
aa(lp451
F8.35
aF25.942
aS'A4c'
p452
aF2.25
aF0.1491
aF0.1802
aF71.5
aF0.46199999999999997
aa(lp453
F16.479
aF26.226
aS'A4c'
p454
aF2.25
aF0.1491
aF0.1802
aF71.5
aF1.6110000000000002
aa(lp455
F25.537
aF26.663
aS'A4c'
p456
aF2.25
aF0.1491
aF0.1802
aF71.5
aF3.12
aa(lp457
F45.425
aF27.715
aS'A4c'
p458
aF2.25
aF0.1491
aF0.1802
aF71.5
aF6.09
aa(lp459
F87.082
aF30.34
aS'A4c'
p460
aF2.25
aF0.1491
aF0.1802
aF71.5
aF12.0
aa(lp461
F5.423
aF33.186
aS'A4c'
p462
aF2.25
aF0.1988
aF0.2403
aF71.5
aF0.46199999999999997
aa(lp463
F12.057
aF33.225
aS'A4c'
p464
aF2.25
aF0.1988
aF0.2403
aF71.5
aF1.6110000000000002
aa(lp465
F21.721
aF33.388
aS'A4c'
p466
aF2.25
aF0.1988
aF0.2403
aF71.5
aF3.12
aa(lp467
F40.829
aF33.973
aS'A4c'
p468
aF2.25
aF0.1988
aF0.2403
aF71.5
aF6.09
aa(lp469
F80.942
aF35.892
aS'A4c'
p470
aF2.25
aF0.1988
aF0.2403
aF71.5
aF12.0
aa(lp471
F1.392
aF47.707
aS'A4c'
p472
aF2.25
aF0.2981
aF0.3605
aF71.5
aF0.46199999999999997
aa(lp473
F6.298
aF47.266
aS'A4c'
p474
aF2.25
aF0.2981
aF0.3605
aF71.5
aF1.6110000000000002
aa(lp475
F14.842
aF46.841
aS'A4c'
p476
aF2.25
aF0.2981
aF0.3605
aF71.5
aF3.12
aa(lp477
F33.001
aF46.496
aS'A4c'
p478
aF2.25
aF0.2981
aF0.3605
aF71.5
aF6.09
aa(lp479
F71.87
aF47.047
aS'A4c'
p480
aF2.25
aF0.2981
aF0.3605
aF71.5
aF12.0
aa(lp481
F0.0
aF59.791
aS'A4c'
p482
aF2.25
aF0.3975
aF0.4806
aF71.5
aF0.46199999999999997
aa(lp483
F4.512
aF58.951
aS'A4c'
p484
aF2.25
aF0.3975
aF0.4806
aF71.5
aF1.6110000000000002
aa(lp485
F10.21
aF58.052
aS'A4c'
p486
aF2.25
aF0.3975
aF0.4806
aF71.5
aF3.12
aa(lp487
F28.342
aF56.884
aS'A4c'
p488
aF2.25
aF0.3975
aF0.4806
aF71.5
aF6.09
aa(lp489
F65.472
aF56.282
aS'A4c'
p490
aF2.25
aF0.3975
aF0.4806
aF71.5
aF12.0
aa(lp491
F47.94
aF5.852
aS'A4c'
p492
aF3.45
aF0.0
aF0.0
aF71.5
aF0.46199999999999997
aa(lp493
F56.302
aF6.685
aS'A4c'
p494
aF3.45
aF0.0
aF0.0
aF71.5
aF1.6110000000000002
aa(lp495
F68.926
aF7.772
aS'A4c'
p496
aF3.45
aF0.0
aF0.0
aF71.5
aF3.12
aa(lp497
F91.711
aF9.87
aS'A4c'
p498
aF3.45
aF0.0
aF0.0
aF71.5
aF6.09
aa(lp499
F137.025
aF13.824
aS'A4c'
p500
aF3.45
aF0.0
aF0.0
aF71.5
aF12.0
aa(lp501
F35.744
aF8.708
aS'A4c'
p502
aF3.45
aF0.0497
aF0.0601
aF71.5
aF0.46199999999999997
aa(lp503
F43.886
aF9.465
aS'A4c'
p504
aF3.45
aF0.0497
aF0.0601
aF71.5
aF1.6110000000000002
aa(lp505
F54.796
aF10.458
aS'A4c'
p506
aF3.45
aF0.0497
aF0.0601
aF71.5
aF3.12
aa(lp507
F78.279
aF13.989
aS'A4c'
p508
aF3.45
aF0.0497
aF0.0601
aF71.5
aF6.09
aa(lp509
F123.254
aF18.076
aS'A4c'
p510
aF3.45
aF0.0497
aF0.0601
aF71.5
aF12.0
aa(lp511
F27.515
aF15.828
aS'A4c'
p512
aF3.45
aF0.0994
aF0.1202
aF71.5
aF0.46199999999999997
aa(lp513
F34.811
aF16.507
aS'A4c'
p514
aF3.45
aF0.0994
aF0.1202
aF71.5
aF1.6110000000000002
aa(lp515
F46.325
aF17.435
aS'A4c'
p516
aF3.45
aF0.0994
aF0.1202
aF71.5
aF3.12
aa(lp517
F68.713
aF19.327
aS'A4c'
p518
aF3.45
aF0.0994
aF0.1202
aF71.5
aF6.09
aa(lp519
F112.423
aF23.157
aS'A4c'
p520
aF3.45
aF0.0994
aF0.1202
aF71.5
aF12.0
aa(lp521
F22.565
aF21.693
aS'A4c'
p522
aF3.45
aF0.1491
aF0.1802
aF71.5
aF0.46199999999999997
aa(lp523
F29.656
aF22.175
aS'A4c'
p524
aF3.45
aF0.1491
aF0.1802
aF71.5
aF1.6110000000000002
aa(lp525
F40.439
aF22.862
aS'A4c'
p526
aF3.45
aF0.1491
aF0.1802
aF71.5
aF3.12
aa(lp527
F60.577
aF24.337
aS'A4c'
p528
aF3.45
aF0.1491
aF0.1802
aF71.5
aF6.09
aa(lp529
F104.221
aF27.542
aS'A4c'
p530
aF3.45
aF0.1491
aF0.1802
aF71.5
aF12.0
aa(lp531
F18.748
aF27.62
aS'A4c'
p532
aF3.45
aF0.1988
aF0.2403
aF71.5
aF0.46199999999999997
aa(lp533
F25.608
aF27.925
aS'A4c'
p534
aF3.45
aF0.1988
aF0.2403
aF71.5
aF1.6110000000000002
aa(lp535
F34.835
aF28.392
aS'A4c'
p536
aF3.45
aF0.1988
aF0.2403
aF71.5
aF3.12
aa(lp537
F55.396
aF29.492
aS'A4c'
p538
aF3.45
aF0.1988
aF0.2403
aF71.5
aF6.09
aa(lp539
F97.662
aF32.126
aS'A4c'
p540
aF3.45
aF0.1988
aF0.2403
aF71.5
aF12.0
aa(lp541
F12.147
aF39.477
aS'A4c'
p542
aF3.45
aF0.2981
aF0.3605
aF71.5
aF0.46199999999999997
aa(lp543
F19.53
aF39.43
aS'A4c'
p544
aF3.45
aF0.2981
aF0.3605
aF71.5
aF1.6110000000000002
aa(lp545
F28.367
aF39.47
aS'A4c'
p546
aF3.45
aF0.2981
aF0.3605
aF71.5
aF3.12
aa(lp547
F47.764
aF39.84
aS'A4c'
p548
aF3.45
aF0.2981
aF0.3605
aF71.5
aF6.09
aa(lp549
F87.801
aF41.377
aS'A4c'
p550
aF3.45
aF0.2981
aF0.3605
aF71.5
aF12.0
aa(lp551
F6.928
aF50.356
aS'A4c'
p552
aF3.45
aF0.3975
aF0.4806
aF71.5
aF0.46199999999999997
aa(lp553
F13.912
aF49.951
aS'A4c'
p554
aF3.45
aF0.3975
aF0.4806
aF71.5
aF1.6110000000000002
aa(lp555
F23.436
aF49.585
aS'A4c'
p556
aF3.45
aF0.3975
aF0.4806
aF71.5
aF3.12
aa(lp557
F41.96
aF49.284
aS'A4c'
p558
aF3.45
aF0.3975
aF0.4806
aF71.5
aF6.09
aa(lp559
F80.273
aF49.829
aS'A4c'
p560
aF3.45
aF0.3975
aF0.4806
aF71.5
aF12.0
aa(lp561
F0.0
aF7.037
aS'A4c'
p562
aF0.0006
aF0.0
aF0.0
aF656.5
aF0.46199999999999997
aa(lp563
F0.0
aF5.552
aS'A4c'
p564
aF0.0006
aF0.0
aF0.0
aF656.5
aF1.6110000000000002
aa(lp565
F4.891
aF6.527
aS'A4c'
p566
aF0.0006
aF0.0
aF0.0
aF656.5
aF3.12
aa(lp567
F27.272
aF8.442
aS'A4c'
p568
aF0.0006
aF0.0
aF0.0
aF656.5
aF6.09
aa(lp569
F71.314
aF12.151
aS'A4c'
p570
aF0.0006
aF0.0
aF0.0
aF656.5
aF12.0
aa(lp571
F0.0
aF21.129
aS'A4c'
p572
aF0.0006
aF0.0497
aF0.0601
aF656.5
aF0.46199999999999997
aa(lp573
F0.0
aF17.824
aS'A4c'
p574
aF0.0006
aF0.0497
aF0.0601
aF656.5
aF1.6110000000000002
aa(lp575
F0.0
aF17.553
aS'A4c'
p576
aF0.0006
aF0.0497
aF0.0601
aF656.5
aF3.12
aa(lp577
F11.168
aF18.167
aS'A4c'
p578
aF0.0006
aF0.0497
aF0.0601
aF656.5
aF6.09
aa(lp579
F50.799
aF20.605
aS'A4c'
p580
aF0.0006
aF0.0497
aF0.0601
aF656.5
aF12.0
aa(lp581
F0.0
aF34.335
aS'A4c'
p582
aF0.0006
aF0.0994
aF0.1202
aF656.5
aF0.46199999999999997
aa(lp583
F0.0
aF28.671
aS'A4c'
p584
aF0.0006
aF0.0994
aF0.1202
aF656.5
aF1.6110000000000002
aa(lp585
F0.0
aF27.529
aS'A4c'
p586
aF0.0006
aF0.0994
aF0.1202
aF656.5
aF3.12
aa(lp587
F4.452
aF27.22
aS'A4c'
p588
aF0.0006
aF0.0994
aF0.1202
aF656.5
aF6.09
aa(lp589
F37.366
aF28.35
aS'A4c'
p590
aF0.0006
aF0.0994
aF0.1202
aF656.5
aF12.0
aa(lp591
F0.0
aF47.571
aS'A4c'
p592
aF0.0006
aF0.1491
aF0.1802
aF656.5
aF0.46199999999999997
aa(lp593
F0.0
aF39.581
aS'A4c'
p594
aF0.0006
aF0.1491
aF0.1802
aF656.5
aF1.6110000000000002
aa(lp595
F0.0
aF37.576
aS'A4c'
p596
aF0.0006
aF0.1491
aF0.1802
aF656.5
aF3.12
aa(lp597
F0.0
aF36.321
aS'A4c'
p598
aF0.0006
aF0.1491
aF0.1802
aF656.5
aF6.09
aa(lp599
F27.67
aF36.3
aS'A4c'
p600
aF0.0006
aF0.1491
aF0.1802
aF656.5
aF12.0
aa(lp601
F0.0
aF60.904
aS'A4c'
p602
aF0.0006
aF0.1988
aF0.2403
aF656.5
aF0.46199999999999997
aa(lp603
F0.0
aF50.589
aS'A4c'
p604
aF0.0006
aF0.1988
aF0.2403
aF656.5
aF1.6110000000000002
aa(lp605
F0.0
aF47.723
aS'A4c'
p606
aF0.0006
aF0.1988
aF0.2403
aF656.5
aF3.12
aa(lp607
F0.0
aF45.494
aS'A4c'
p608
aF0.0006
aF0.1988
aF0.2403
aF656.5
aF6.09
aa(lp609
F19.338
aF44.342
aS'A4c'
p610
aF0.0006
aF0.1988
aF0.2403
aF656.5
aF12.0
aa(lp611
F0.0
aF88.011
aS'A4c'
p612
aF0.0006
aF0.2981
aF0.3605
aF656.5
aF0.46199999999999997
aa(lp613
F0.0
aF73.003
aS'A4c'
p614
aF0.0006
aF0.2981
aF0.3605
aF656.5
aF1.6110000000000002
aa(lp615
F0.0
aF68.406
aS'A4c'
p616
aF0.0006
aF0.2981
aF0.3605
aF656.5
aF3.12
aa(lp617
F0.0
aF64.208
aS'A4c'
p618
aF0.0006
aF0.2981
aF0.3605
aF656.5
aF6.09
aa(lp619
F8.852
aF60.712
aS'A4c'
p620
aF0.0006
aF0.2981
aF0.3605
aF656.5
aF12.0
aa(lp621
F0.0
aF107.776
aS'A4c'
p622
aF0.0006
aF0.3975
aF0.4806
aF656.5
aF0.46199999999999997
aa(lp623
F0.0
aF88.891
aS'A4c'
p624
aF0.0006
aF0.3975
aF0.4806
aF656.5
aF1.6110000000000002
aa(lp625
F0.0
aF82.959
aS'A4c'
p626
aF0.0006
aF0.3975
aF0.4806
aF656.5
aF3.12
aa(lp627
F0.0
aF77.272
aS'A4c'
p628
aF0.0006
aF0.3975
aF0.4806
aF656.5
aF6.09
aa(lp629
F5.563
aF72.014
aS'A4c'
p630
aF0.0006
aF0.3975
aF0.4806
aF656.5
aF12.0
aa(lp631
F0.0
aF4.711
aS'A4c'
p632
aF0.5
aF0.0
aF0.0
aF656.5
aF0.46199999999999997
aa(lp633
F5.508
aF5.47
aS'A4c'
p634
aF0.5
aF0.0
aF0.0
aF656.5
aF1.6110000000000002
aa(lp635
F18.102
aF6.471
aS'A4c'
p636
aF0.5
aF0.0
aF0.0
aF656.5
aF3.12
aa(lp637
F39.303
aF8.427
aS'A4c'
p638
aF0.5
aF0.0
aF0.0
aF656.5
aF6.09
aa(lp639
F84.106
aF12.185
aS'A4c'
p640
aF0.5
aF0.0
aF0.0
aF656.5
aF12.0
aa(lp641
F0.0
aF14.716
aS'A4c'
p642
aF0.5
aF0.0497
aF0.0601
aF656.5
aF0.46199999999999997
aa(lp643
F0.0
aF14.735
aS'A4c'
p644
aF0.5
aF0.0497
aF0.0601
aF656.5
aF1.6110000000000002
aa(lp645
F4.745
aF15.102
aS'A4c'
p646
aF0.5
aF0.0497
aF0.0601
aF656.5
aF3.12
aa(lp647
F23.496
aF14.899
aS'A4c'
p648
aF0.5
aF0.0497
aF0.0601
aF656.5
aF6.09
aa(lp649
F65.142
aF18.167
aS'A4c'
p650
aF0.5
aF0.0497
aF0.0601
aF656.5
aF12.0
aa(lp651
F0.0
aF24.457
aS'A4c'
p652
aF0.5
aF0.0994
aF0.1202
aF656.5
aF0.46199999999999997
aa(lp653
F0.0
aF23.939
aS'A4c'
p654
aF0.5
aF0.0994
aF0.1202
aF656.5
aF1.6110000000000002
aa(lp655
F0.0
aF23.806
aS'A4c'
p656
aF0.5
aF0.0994
aF0.1202
aF656.5
aF3.12
aa(lp657
F12.238
aF24.187
aS'A4c'
p658
aF0.5
aF0.0994
aF0.1202
aF656.5
aF6.09
aa(lp659
F49.855
aF26.053
aS'A4c'
p660
aF0.5
aF0.0994
aF0.1202
aF656.5
aF12.0
aa(lp661
F0.0
aF34.264
aS'A4c'
p662
aF0.5
aF0.1491
aF0.1802
aF656.5
aF0.46199999999999997
aa(lp663
F0.0
aF33.174
aS'A4c'
p664
aF0.5
aF0.1491
aF0.1802
aF656.5
aF1.6110000000000002
aa(lp665
F0.0
aF32.558
aS'A4c'
p666
aF0.5
aF0.1491
aF0.1802
aF656.5
aF3.12
aa(lp667
F6.384
aF32.232
aS'A4c'
p668
aF0.5
aF0.1491
aF0.1802
aF656.5
aF6.09
aa(lp669
F39.356
aF33.091
aS'A4c'
p670
aF0.5
aF0.1491
aF0.1802
aF656.5
aF12.0
aa(lp671
F0.0
aF44.127
aS'A4c'
p672
aF0.5
aF0.1988
aF0.2403
aF656.5
aF0.46199999999999997
aa(lp673
F0.0
aF42.48
aS'A4c'
p674
aF0.5
aF0.1988
aF0.2403
aF656.5
aF1.6110000000000002
aa(lp675
F0.0
aF41.344
aS'A4c'
p676
aF0.5
aF0.1988
aF0.2403
aF656.5
aF3.12
aa(lp677
F1.603
aF40.317
aS'A4c'
p678
aF0.5
aF0.1988
aF0.2403
aF656.5
aF6.09
aa(lp679
F31.309
aF40.223
aS'A4c'
p680
aF0.5
aF0.1988
aF0.2403
aF656.5
aF12.0
aa(lp681
F0.0
aF64.114
aS'A4c'
p682
aF0.5
aF0.2981
aF0.3605
aF656.5
aF0.46199999999999997
aa(lp683
F0.0
aF61.346
aS'A4c'
p684
aF0.5
aF0.2981
aF0.3605
aF656.5
aF1.6110000000000002
aa(lp685
F0.0
aF59.177
aS'A4c'
p686
aF0.5
aF0.2981
aF0.3605
aF656.5
aF3.12
aa(lp687
F0.0
aF56.69
aS'A4c'
p688
aF0.5
aF0.2981
aF0.3605
aF656.5
aF6.09
aa(lp689
F18.683
aF54.702
aS'A4c'
p690
aF0.5
aF0.2981
aF0.3605
aF656.5
aF12.0
aa(lp691
F0.0
aF78.842
aS'A4c'
p692
aF0.5
aF0.3975
aF0.4806
aF656.5
aF0.46199999999999997
aa(lp693
F0.0
aF75.176
aS'A4c'
p694
aF0.5
aF0.3975
aF0.4806
aF656.5
aF1.6110000000000002
aa(lp695
F0.0
aF72.201
aS'A4c'
p696
aF0.5
aF0.3975
aF0.4806
aF656.5
aF3.12
aa(lp697
F0.0
aF68.586
aS'A4c'
p698
aF0.5
aF0.3975
aF0.4806
aF656.5
aF6.09
aa(lp699
F11.652
aF65.172
aS'A4c'
p700
aF0.5
aF0.3975
aF0.4806
aF656.5
aF12.0
aa(lp701
F1.471
aF4.698
aS'A4c'
p702
aF0.75
aF0.0
aF0.0
aF656.5
aF0.46199999999999997
aa(lp703
F10.865
aF5.464
aS'A4c'
p704
aF0.75
aF0.0
aF0.0
aF656.5
aF1.6110000000000002
aa(lp705
F23.616
aF6.474
aS'A4c'
p706
aF0.75
aF0.0
aF0.0
aF656.5
aF3.12
aa(lp707
F46.015
aF8.442
aS'A4c'
p708
aF0.75
aF0.0
aF0.0
aF656.5
aF6.09
aa(lp709
F91.097
aF12.216
aS'A4c'
p710
aF0.75
aF0.0
aF0.0
aF656.5
aF12.0
aa(lp711
F0.0
aF13.446
aS'A4c'
p712
aF0.75
aF0.0497
aF0.0601
aF656.5
aF0.46199999999999997
aa(lp713
F0.0
aF13.682
aS'A4c'
p714
aF0.75
aF0.0497
aF0.0601
aF656.5
aF1.6110000000000002
aa(lp715
F9.034
aF12.873
aS'A4c'
p716
aF0.75
aF0.0497
aF0.0601
aF656.5
aF3.12
aa(lp717
F28.811
aF14.449
aS'A4c'
p718
aF0.75
aF0.0497
aF0.0601
aF656.5
aF6.09
aa(lp719
F71.244
aF17.846
aS'A4c'
p720
aF0.75
aF0.0497
aF0.0601
aF656.5
aF12.0
aa(lp721
F0.0
aF22.485
aS'A4c'
p722
aF0.75
aF0.0994
aF0.1202
aF656.5
aF0.46199999999999997
aa(lp723
F0.0
aF22.308
aS'A4c'
p724
aF0.75
aF0.0994
aF0.1202
aF656.5
aF1.6110000000000002
aa(lp725
F1.355
aF22.374
aS'A4c'
p726
aF0.75
aF0.0994
aF0.1202
aF656.5
aF3.12
aa(lp727
F17.31
aF22.974
aS'A4c'
p728
aF0.75
aF0.0994
aF0.1202
aF656.5
aF6.09
aa(lp729
F56.925
aF25.141
aS'A4c'
p730
aF0.75
aF0.0994
aF0.1202
aF656.5
aF12.0
aa(lp731
F0.0
aF31.571
aS'A4c'
p732
aF0.75
aF0.1491
aF0.1802
aF656.5
aF0.46199999999999997
aa(lp733
F0.0
aF30.969
aS'A4c'
p734
aF0.75
aF0.1491
aF0.1802
aF656.5
aF1.6110000000000002
aa(lp735
F0.0
aF30.62
aS'A4c'
p736
aF0.75
aF0.1491
aF0.1802
aF656.5
aF3.12
aa(lp737
F10.409
aF30.582
aS'A4c'
p738
aF0.75
aF0.1491
aF0.1802
aF656.5
aF6.09
aa(lp739
F45.001
aF31.787
aS'A4c'
p740
aF0.75
aF0.1491
aF0.1802
aF656.5
aF12.0
aa(lp741
F0.0
aF40.71
aS'A4c'
p742
aF0.75
aF0.1988
aF0.2403
aF656.5
aF0.46199999999999997
aa(lp743
F0.0
aF39.663
aS'A4c'
p744
aF0.75
aF0.1988
aF0.2403
aF656.5
aF1.6110000000000002
aa(lp745
F0.0
aF38.894
aS'A4c'
p746
aF0.75
aF0.1988
aF0.2403
aF656.5
aF3.12
aa(lp747
F5.927
aF38.219
aS'A4c'
p748
aF0.75
aF0.1988
aF0.2403
aF656.5
aF6.09
aa(lp749
F36.61
aF38.528
aS'A4c'
p750
aF0.75
aF0.1988
aF0.2403
aF656.5
aF12.0
aa(lp751
F0.0
aF59.197
aS'A4c'
p752
aF0.75
aF0.2981
aF0.3605
aF656.5
aF0.46199999999999997
aa(lp753
F0.0
aF57.278
aS'A4c'
p754
aF0.75
aF0.2981
aF0.3605
aF656.5
aF1.6110000000000002
aa(lp755
F0.0
aF55.612
aS'A4c'
p756
aF0.75
aF0.2981
aF0.3605
aF656.5
aF3.12
aa(lp757
F0.0
aF53.664
aS'A4c'
p758
aF0.75
aF0.2981
aF0.3605
aF656.5
aF6.09
aa(lp759
F24.33
aF52.22
aS'A4c'
p760
aF0.75
aF0.2981
aF0.3605
aF656.5
aF12.0
aa(lp761
F0.0
aF73.069
aS'A4c'
p762
aF0.75
aF0.3975
aF0.4806
aF656.5
aF0.46199999999999997
aa(lp763
F0.0
aF70.448
aS'A4c'
p764
aF0.75
aF0.3975
aF0.4806
aF656.5
aF1.6110000000000002
aa(lp765
F0.0
aF68.092
aS'A4c'
p766
aF0.75
aF0.3975
aF0.4806
aF656.5
aF3.12
aa(lp767
F0.0
aF65.116
aS'A4c'
p768
aF0.75
aF0.3975
aF0.4806
aF656.5
aF6.09
aa(lp769
F16.126
aF62.35
aS'A4c'
p770
aF0.75
aF0.3975
aF0.4806
aF656.5
aF12.0
aa(lp771
F8.44
aF4.702
aS'A4c'
p772
aF1.0
aF0.0
aF0.0
aF656.5
aF0.46199999999999997
aa(lp773
F17.964
aF5.474
aS'A4c'
p774
aF1.0
aF0.0
aF0.0
aF656.5
aF1.6110000000000002
aa(lp775
F28.74
aF6.489
aS'A4c'
p776
aF1.0
aF0.0
aF0.0
aF656.5
aF3.12
aa(lp777
F51.363
aF8.467
aS'A4c'
p778
aF1.0
aF0.0
aF0.0
aF656.5
aF6.09
aa(lp779
F96.671
aF12.253
aS'A4c'
p780
aF1.0
aF0.0
aF0.0
aF656.5
aF12.0
aa(lp781
F0.0
aF11.053
aS'A4c'
p782
aF1.0
aF0.0497
aF0.0601
aF656.5
aF0.46199999999999997
aa(lp783
F4.691
aF11.623
aS'A4c'
p784
aF1.0
aF0.0497
aF0.0601
aF656.5
aF1.6110000000000002
aa(lp785
F12.593
aF12.41
aS'A4c'
p786
aF1.0
aF0.0497
aF0.0601
aF656.5
aF3.12
aa(lp787
F33.92
aF14.067
aS'A4c'
p788
aF1.0
aF0.0497
aF0.0601
aF656.5
aF6.09
aa(lp789
F77.027
aF17.574
aS'A4c'
p790
aF1.0
aF0.0497
aF0.0601
aF656.5
aF12.0
aa(lp791
F0.0
aF20.923
aS'A4c'
p792
aF1.0
aF0.0994
aF0.1202
aF656.5
aF0.46199999999999997
aa(lp793
F0.0
aF20.919
aS'A4c'
p794
aF1.0
aF0.0994
aF0.1202
aF656.5
aF1.6110000000000002
aa(lp795
F5.549
aF21.135
aS'A4c'
p796
aF1.0
aF0.0994
aF0.1202
aF656.5
aF3.12
aa(lp797
F23.102
aF21.916
aS'A4c'
p798
aF1.0
aF0.0994
aF0.1202
aF656.5
aF6.09
aa(lp799
F62.734
aF24.356
aS'A4c'
p800
aF1.0
aF0.0994
aF0.1202
aF656.5
aF12.0
aa(lp801
F0.0
aF29.434
aS'A4c'
p802
aF1.0
aF0.1491
aF0.1802
aF656.5
aF0.46199999999999997
aa(lp803
F0.0
aF29.098
aS'A4c'
p804
aF1.0
aF0.1491
aF0.1802
aF656.5
aF1.6110000000000002
aa(lp805
F0.0
aF28.927
aS'A4c'
p806
aF1.0
aF0.1491
aF0.1802
aF656.5
aF3.12
aa(lp807
F13.759
aF29.124
aS'A4c'
p808
aF1.0
aF0.1491
aF0.1802
aF656.5
aF6.09
aa(lp809
F50.483
aF30.635
aS'A4c'
p810
aF1.0
aF0.1491
aF0.1802
aF656.5
aF12.0
aa(lp811
F0.0
aF37.987
aS'A4c'
p812
aF1.0
aF0.1988
aF0.2403
aF656.5
aF0.46199999999999997
aa(lp813
F0.0
aF37.29
aS'A4c'
p814
aF1.0
aF0.1988
aF0.2403
aF656.5
aF1.6110000000000002
aa(lp815
F0.0
aF36.759
aS'A4c'
p816
aF1.0
aF0.1988
aF0.2403
aF656.5
aF3.12
aa(lp817
F8.261
aF36.37
aS'A4c'
p818
aF1.0
aF0.1988
aF0.2403
aF656.5
aF6.09
aa(lp819
F41.796
aF37.028
aS'A4c'
p820
aF1.0
aF0.1988
aF0.2403
aF656.5
aF12.0
aa(lp821
F0.0
aF55.269
aS'A4c'
p822
aF1.0
aF0.2981
aF0.3605
aF656.5
aF0.46199999999999997
aa(lp823
F0.0
aF53.829
aS'A4c'
p824
aF1.0
aF0.2981
aF0.3605
aF656.5
aF1.6110000000000002
aa(lp825
F0.0
aF52.526
aS'A4c'
p826
aF1.0
aF0.2981
aF0.3605
aF656.5
aF3.12
aa(lp827
F2.925
aF50.986
aS'A4c'
p828
aF1.0
aF0.2981
aF0.3605
aF656.5
aF6.09
aa(lp829
F29.05
aF50.011
aS'A4c'
p830
aF1.0
aF0.2981
aF0.3605
aF656.5
aF12.0
aa(lp831
F0.0
aF68.485
aS'A4c'
p832
aF1.0
aF0.3975
aF0.4806
aF656.5
aF0.46199999999999997
aa(lp833
F0.0
aF66.458
aS'A4c'
p834
aF1.0
aF0.3975
aF0.4806
aF656.5
aF1.6110000000000002
aa(lp835
F0.0
aF64.526
aS'A4c'
p836
aF1.0
aF0.3975
aF0.4806
aF656.5
aF3.12
aa(lp837
F0.0
aF62.055
aS'A4c'
p838
aF1.0
aF0.3975
aF0.4806
aF656.5
aF6.09
aa(lp839
F19.779
aF59.825
aS'A4c'
p840
aF1.0
aF0.3975
aF0.4806
aF656.5
aF12.0
aa(lp841
F13.436
aF4.72
aS'A4c'
p842
aF1.25
aF0.0
aF0.0
aF656.5
aF0.46199999999999997
aa(lp843
F22.84
aF5.495
aS'A4c'
p844
aF1.25
aF0.0
aF0.0
aF656.5
aF1.6110000000000002
aa(lp845
F33.523
aF6.514
aS'A4c'
p846
aF1.25
aF0.0
aF0.0
aF656.5
aF3.12
aa(lp847
F56.396
aF8.498
aS'A4c'
p848
aF1.25
aF0.0
aF0.0
aF656.5
aF6.09
aa(lp849
F101.896
aF12.294
aS'A4c'
p850
aF1.25
aF0.0
aF0.0
aF656.5
aF12.0
aa(lp851
F1.255
aF10.585
aS'A4c'
p852
aF1.25
aF0.0497
aF0.0601
aF656.5
aF0.46199999999999997
aa(lp853
F8.644
aF11.185
aS'A4c'
p854
aF1.25
aF0.0497
aF0.0601
aF656.5
aF1.6110000000000002
aa(lp855
F18.997
aF12.017
aS'A4c'
p856
aF1.25
aF0.0497
aF0.0601
aF656.5
aF3.12
aa(lp857
F38.843
aF13.74
aS'A4c'
p858
aF1.25
aF0.0497
aF0.0601
aF656.5
aF6.09
aa(lp859
F82.513
aF17.34
aS'A4c'
p860
aF1.25
aF0.0497
aF0.0601
aF656.5
aF12.0
aa(lp861
F0.0
aF19.597
aS'A4c'
p862
aF1.25
aF0.0994
aF0.1202
aF656.5
aF0.46199999999999997
aa(lp863
F1.276
aF19.724
aS'A4c'
p864
aF1.25
aF0.0994
aF0.1202
aF656.5
aF1.6110000000000002
aa(lp865
F9.307
aF20.045
aS'A4c'
p866
aF1.25
aF0.0994
aF0.1202
aF656.5
aF3.12
aa(lp867
F27.651
aF20.988
aS'A4c'
p868
aF1.25
aF0.0994
aF0.1202
aF656.5
aF6.09
aa(lp869
F68.265
aF23.679
aS'A4c'
p870
aF1.25
aF0.0994
aF0.1202
aF656.5
aF12.0
aa(lp871
F0.0
aF27.644
aS'A4c'
p872
aF1.25
aF0.1491
aF0.1802
aF656.5
aF0.46199999999999997
aa(lp873
F0.0
aF27.464
aS'A4c'
p874
aF1.25
aF0.1491
aF0.1802
aF656.5
aF1.6110000000000002
aa(lp875
F4.533
aF27.442
aS'A4c'
p876
aF1.25
aF0.1491
aF0.1802
aF656.5
aF3.12
aa(lp877
F19.791
aF27.829
aS'A4c'
p878
aF1.25
aF0.1491
aF0.1802
aF656.5
aF6.09
aa(lp879
F55.771
aF29.612
aS'A4c'
p880
aF1.25
aF0.1491
aF0.1802
aF656.5
aF12.0
aa(lp881
F0.0
aF35.701
aS'A4c'
p882
aF1.25
aF0.1988
aF0.2403
aF656.5
aF0.46199999999999997
aa(lp883
F0.0
aF35.227
aS'A4c'
p884
aF1.25
aF0.1988
aF0.2403
aF656.5
aF1.6110000000000002
aa(lp885
F0.0
aF34.867
aS'A4c'
p886
aF1.25
aF0.1988
aF0.2403
aF656.5
aF3.12
aa(lp887
F12.368
aF34.716
aS'A4c'
p888
aF1.25
aF0.1988
aF0.2403
aF656.5
aF6.09
aa(lp889
F46.898
aF35.686
aS'A4c'
p890
aF1.25
aF0.1988
aF0.2403
aF656.5
aF12.0
aa(lp891
F0.0
aF51.957
aS'A4c'
p892
aF1.25
aF0.2981
aF0.3605
aF656.5
aF0.46199999999999997
aa(lp893
F0.0
aF50.84
aS'A4c'
p894
aF1.25
aF0.2981
aF0.3605
aF656.5
aF1.6110000000000002
aa(lp895
F0.0
aF49.813
aS'A4c'
p896
aF1.25
aF0.2981
aF0.3605
aF656.5
aF3.12
aa(lp897
F5.775
aF48.593
aS'A4c'
p898
aF1.25
aF0.2981
aF0.3605
aF656.5
aF6.09
aa(lp899
F33.715
aF48.025
aS'A4c'
p900
aF1.25
aF0.2981
aF0.3605
aF656.5
aF12.0
aa(lp901
F0.0
aF64.636
aS'A4c'
p902
aF1.25
aF0.3975
aF0.4806
aF656.5
aF0.46199999999999997
aa(lp903
F0.0
aF62.991
aS'A4c'
p904
aF1.25
aF0.3975
aF0.4806
aF656.5
aF1.6110000000000002
aa(lp905
F0.0
aF61.387
aS'A4c'
p906
aF1.25
aF0.3975
aF0.4806
aF656.5
aF3.12
aa(lp907
F1.424
aF59.322
aS'A4c'
p908
aF1.25
aF0.3975
aF0.4806
aF656.5
aF6.09
aa(lp909
F24.929
aF57.557
aS'A4c'
p910
aF1.25
aF0.3975
aF0.4806
aF656.5
aF12.0
aa(lp911
F19.266
aF4.746
aS'A4c'
p912
aF1.5
aF0.0
aF0.0
aF656.5
aF0.46199999999999997
aa(lp913
F27.385
aF5.523
aS'A4c'
p914
aF1.5
aF0.0
aF0.0
aF656.5
aF1.6110000000000002
aa(lp915
F37.997
aF6.545
aS'A4c'
p916
aF1.5
aF0.0
aF0.0
aF656.5
aF3.12
aa(lp917
F61.137
aF8.534
aS'A4c'
p918
aF1.5
aF0.0
aF0.0
aF656.5
aF6.09
aa(lp919
F106.807
aF12.337
aS'A4c'
p920
aF1.5
aF0.0
aF0.0
aF656.5
aF12.0
aa(lp921
F5.37
aF10.176
aS'A4c'
p922
aF1.5
aF0.0497
aF0.0601
aF656.5
aF0.46199999999999997
aa(lp923
F11.834
aF10.81
aS'A4c'
p924
aF1.5
aF0.0497
aF0.0601
aF656.5
aF1.6110000000000002
aa(lp925
F23.375
aF11.676
aS'A4c'
p926
aF1.5
aF0.0497
aF0.0601
aF656.5
aF3.12
aa(lp927
F43.533
aF13.466
aS'A4c'
p928
aF1.5
aF0.0497
aF0.0601
aF656.5
aF6.09
aa(lp929
F87.704
aF17.136
aS'A4c'
p930
aF1.5
aF0.0497
aF0.0601
aF656.5
aF12.0
aa(lp931
F0.0
aF18.446
aS'A4c'
p932
aF1.5
aF0.0994
aF0.1202
aF656.5
aF0.46199999999999997
aa(lp933
F5.088
aF18.673
aS'A4c'
p934
aF1.5
aF0.0994
aF0.1202
aF656.5
aF1.6110000000000002
aa(lp935
F12.346
aF19.082
aS'A4c'
p936
aF1.5
aF0.0994
aF0.1202
aF656.5
aF3.12
aa(lp937
F32.112
aF20.177
aS'A4c'
p938
aF1.5
aF0.0994
aF0.1202
aF656.5
aF6.09
aa(lp939
F73.538
aF23.095
aS'A4c'
p940
aF1.5
aF0.0994
aF0.1202
aF656.5
aF12.0
aa(lp941
F0.0
aF26.08
aS'A4c'
p942
aF1.5
aF0.1491
aF0.1802
aF656.5
aF0.46199999999999997
aa(lp943
F0.0
aF26.016
aS'A4c'
p944
aF1.5
aF0.1491
aF0.1802
aF656.5
aF1.6110000000000002
aa(lp945
F6.574
aF26.117
aS'A4c'
p946
aF1.5
aF0.1491
aF0.1802
aF656.5
aF3.12
aa(lp947
F23.906
aF26.67
aS'A4c'
p948
aF1.5
aF0.1491
aF0.1802
aF656.5
aF6.09
aa(lp949
F62.201
aF28.696
aS'A4c'
p950
aF1.5
aF0.1491
aF0.1802
aF656.5
aF12.0
aa(lp951
F0.0
aF33.724
aS'A4c'
p952
aF1.5
aF0.1988
aF0.2403
aF656.5
aF0.46199999999999997
aa(lp953
F0.0
aF33.396
aS'A4c'
p954
aF1.5
aF0.1988
aF0.2403
aF656.5
aF1.6110000000000002
aa(lp955
F2.899
aF33.172
aS'A4c'
p956
aF1.5
aF0.1988
aF0.2403
aF656.5
aF3.12
aa(lp957
F16.755
aF33.227
aS'A4c'
p958
aF1.5
aF0.1988
aF0.2403
aF656.5
aF6.09
aa(lp959
F51.868
aF34.476
aS'A4c'
p960
aF1.5
aF0.1988
aF0.2403
aF656.5
aF12.0
aa(lp961
F0.0
aF49.086
aS'A4c'
p962
aF1.5
aF0.2981
aF0.3605
aF656.5
aF0.46199999999999997
aa(lp963
F0.0
aF48.21
aS'A4c'
p964
aF1.5
aF0.2981
aF0.3605
aF656.5
aF1.6110000000000002
aa(lp965
F0.0
aF47.386
aS'A4c'
p966
aF1.5
aF0.2981
aF0.3605
aF656.5
aF3.12
aa(lp967
F7.654
aF46.439
aS'A4c'
p968
aF1.5
aF0.2981
aF0.3605
aF656.5
aF6.09
aa(lp969
F38.269
aF46.223
aS'A4c'
p970
aF1.5
aF0.2981
aF0.3605
aF656.5
aF12.0
aa(lp971
F0.0
aF61.299
aS'A4c'
p972
aF1.5
aF0.3975
aF0.4806
aF656.5
aF0.46199999999999997
aa(lp973
F0.0
aF59.94
aS'A4c'
p974
aF1.5
aF0.3975
aF0.4806
aF656.5
aF1.6110000000000002
aa(lp975
F0.0
aF58.599
aS'A4c'
p976
aF1.5
aF0.3975
aF0.4806
aF656.5
aF3.12
aa(lp977
F4.658
aF56.863
aS'A4c'
p978
aF1.5
aF0.3975
aF0.4806
aF656.5
aF6.09
aa(lp979
F29.061
aF55.503
aS'A4c'
p980
aF1.5
aF0.3975
aF0.4806
aF656.5
aF12.0
aa(lp981
F31.43
aF4.854
aS'A4c'
p982
aF2.25
aF0.0
aF0.0
aF656.5
aF0.46199999999999997
aa(lp983
F40.764
aF5.632
aS'A4c'
p984
aF2.25
aF0.0
aF0.0
aF656.5
aF1.6110000000000002
aa(lp985
F51.793
aF6.657
aS'A4c'
p986
aF2.25
aF0.0
aF0.0
aF656.5
aF3.12
aa(lp987
F73.824
aF8.655
aS'A4c'
p988
aF2.25
aF0.0
aF0.0
aF656.5
aF6.09
aa(lp989
F119.913
aF12.47
aS'A4c'
p990
aF2.25
aF0.0
aF0.0
aF656.5
aF12.0
aa(lp991
F17.909
aF8.056
aS'A4c'
p992
aF2.25
aF0.0497
aF0.0601
aF656.5
aF0.46199999999999997
aa(lp993
F25.433
aF8.747
aS'A4c'
p994
aF2.25
aF0.0497
aF0.0601
aF656.5
aF1.6110000000000002
aa(lp995
F35.655
aF9.665
aS'A4c'
p996
aF2.25
aF0.0497
aF0.0601
aF656.5
aF3.12
aa(lp997
F57.984
aF11.477
aS'A4c'
p998
aF2.25
aF0.0497
aF0.0601
aF656.5
aF6.09
aa(lp999
F103.131
aF16.672
aS'A4c'
p1000
aF2.25
aF0.0497
aF0.0601
aF656.5
aF12.0
aa(lp1001
F8.621
aF15.749
aS'A4c'
p1002
aF2.25
aF0.0994
aF0.1202
aF656.5
aF0.46199999999999997
aa(lp1003
F15.101
aF14.682
aS'A4c'
p1004
aF2.25
aF0.0994
aF0.1202
aF656.5
aF1.6110000000000002
aa(lp1005
F25.32
aF15.436
aS'A4c'
p1006
aF2.25
aF0.0994
aF0.1202
aF656.5
aF3.12
aa(lp1007
F44.759
aF17.022
aS'A4c'
p1008
aF2.25
aF0.0994
aF0.1202
aF656.5
aF6.09
aa(lp1009
F87.954
aF20.393
aS'A4c'
p1010
aF2.25
aF0.0994
aF0.1202
aF656.5
aF12.0
aa(lp1011
F2.928
aF22.333
aS'A4c'
p1012
aF2.25
aF0.1491
aF0.1802
aF656.5
aF0.46199999999999997
aa(lp1013
F8.918
aF22.52
aS'A4c'
p1014
aF2.25
aF0.1491
aF0.1802
aF656.5
aF1.6110000000000002
aa(lp1015
F16.923
aF22.871
aS'A4c'
p1016
aF2.25
aF0.1491
aF0.1802
aF656.5
aF3.12
aa(lp1017
F35.79
aF23.837
aS'A4c'
p1018
aF2.25
aF0.1491
aF0.1802
aF656.5
aF6.09
aa(lp1019
F76.783
aF26.447
aS'A4c'
p1020
aF2.25
aF0.1491
aF0.1802
aF656.5
aF12.0
aa(lp1021
F0.0
aF28.95
aS'A4c'
p1022
aF2.25
aF0.1988
aF0.2403
aF656.5
aF0.46199999999999997
aa(lp1023
F4.974
aF28.918
aS'A4c'
p1024
aF2.25
aF0.1988
aF0.2403
aF656.5
aF1.6110000000000002
aa(lp1025
F11.169
aF29.014
aS'A4c'
p1026
aF2.25
aF0.1988
aF0.2403
aF656.5
aF3.12
aa(lp1027
F28.877
aF29.537
aS'A4c'
p1028
aF2.25
aF0.1988
aF0.2403
aF656.5
aF6.09
aa(lp1029
F67.347
aF31.471
aS'A4c'
p1030
aF2.25
aF0.1988
aF0.2403
aF656.5
aF12.0
aa(lp1031
F0.0
aF42.239
aS'A4c'
p1032
aF2.25
aF0.2981
aF0.3605
aF656.5
aF0.46199999999999997
aa(lp1033
F0.0
aF41.782
aS'A4c'
p1034
aF2.25
aF0.2981
aF0.3605
aF656.5
aF1.6110000000000002
aa(lp1035
F5.122
aF41.367
aS'A4c'
p1036
aF2.25
aF0.2981
aF0.3605
aF656.5
aF3.12
aa(lp1037
F17.698
aF41.06
aS'A4c'
p1038
aF2.25
aF0.2981
aF0.3605
aF656.5
aF6.09
aa(lp1039
F51.397
aF41.713
aS'A4c'
p1040
aF2.25
aF0.2981
aF0.3605
aF656.5
aF12.0
aa(lp1041
F0.0
aF53.376
aS'A4c'
p1042
aF2.25
aF0.3975
aF0.4806
aF656.5
aF0.46199999999999997
aa(lp1043
F0.0
aF52.563
aS'A4c'
p1044
aF2.25
aF0.3975
aF0.4806
aF656.5
aF1.6110000000000002
aa(lp1045
F1.225
aF51.736
aS'A4c'
p1046
aF2.25
aF0.3975
aF0.4806
aF656.5
aF3.12
aa(lp1047
F10.813
aF50.718
aS'A4c'
p1048
aF2.25
aF0.3975
aF0.4806
aF656.5
aF6.09
aa(lp1049
F41.079
aF50.334
aS'A4c'
p1050
aF2.25
aF0.3975
aF0.4806
aF656.5
aF12.0
aa(lp1051
F47.821
aF5.032
aS'A4c'
p1052
aF3.45
aF0.0
aF0.0
aF656.5
aF0.46199999999999997
aa(lp1053
F56.073
aF5.808
aS'A4c'
p1054
aF3.45
aF0.0
aF0.0
aF656.5
aF1.6110000000000002
aa(lp1055
F67.097
aF6.833
aS'A4c'
p1056
aF3.45
aF0.0
aF0.0
aF656.5
aF3.12
aa(lp1057
F90.697
aF8.835
aS'A4c'
p1058
aF3.45
aF0.0
aF0.0
aF656.5
aF6.09
aa(lp1059
F135.753
aF12.658
aS'A4c'
p1060
aF3.45
aF0.0
aF0.0
aF656.5
aF12.0
aa(lp1061
F33.124
aF7.652
aS'A4c'
p1062
aF3.45
aF0.0497
aF0.0601
aF656.5
aF0.46199999999999997
aa(lp1063
F40.901
aF8.37
aS'A4c'
p1064
aF3.45
aF0.0497
aF0.0601
aF656.5
aF1.6110000000000002
aa(lp1065
F53.008
aF9.318
aS'A4c'
p1066
aF3.45
aF0.0497
aF0.0601
aF656.5
aF3.12
aa(lp1067
F74.959
aF11.179
aS'A4c'
p1068
aF3.45
aF0.0497
aF0.0601
aF656.5
aF6.09
aa(lp1069
F120.901
aF14.791
aS'A4c'
p1070
aF3.45
aF0.0497
aF0.0601
aF656.5
aF12.0
aa(lp1071
F23.571
aF12.251
aS'A4c'
p1072
aF3.45
aF0.0994
aF0.1202
aF656.5
aF0.46199999999999997
aa(lp1073
F30.874
aF12.901
aS'A4c'
p1074
aF3.45
aF0.0994
aF0.1202
aF656.5
aF1.6110000000000002
aa(lp1075
F40.889
aF13.784
aS'A4c'
p1076
aF3.45
aF0.0994
aF0.1202
aF656.5
aF3.12
aa(lp1077
F63.072
aF15.581
aS'A4c'
p1078
aF3.45
aF0.0994
aF0.1202
aF656.5
aF6.09
aa(lp1079
F107.763
aF19.216
aS'A4c'
p1080
aF3.45
aF0.0994
aF0.1202
aF656.5
aF12.0
aa(lp1081
F15.69
aF18.183
aS'A4c'
p1082
aF3.45
aF0.1491
aF0.1802
aF656.5
aF0.46199999999999997
aa(lp1083
F23.474
aF18.609
aS'A4c'
p1084
aF3.45
aF0.1491
aF0.1802
aF656.5
aF1.6110000000000002
aa(lp1085
F32.734
aF19.246
aS'A4c'
p1086
aF3.45
aF0.1491
aF0.1802
aF656.5
aF3.12
aa(lp1087
F53.568
aF20.683
aS'A4c'
p1088
aF3.45
aF0.1491
aF0.1802
aF656.5
aF6.09
aa(lp1089
F96.792
aF23.957
aS'A4c'
p1090
aF3.45
aF0.1491
aF0.1802
aF656.5
aF12.0
aa(lp1091
F10.298
aF23.581
aS'A4c'
p1092
aF3.45
aF0.1988
aF0.2403
aF656.5
aF0.46199999999999997
aa(lp1093
F16.716
aF23.828
aS'A4c'
p1094
aF3.45
aF0.1988
aF0.2403
aF656.5
aF1.6110000000000002
aa(lp1095
F26.428
aF24.243
aS'A4c'
p1096
aF3.45
aF0.1988
aF0.2403
aF656.5
aF3.12
aa(lp1097
F44.776
aF25.3
aS'A4c'
p1098
aF3.45
aF0.1988
aF0.2403
aF656.5
aF6.09
aa(lp1099
F86.489
aF27.969
aS'A4c'
p1100
aF3.45
aF0.1988
aF0.2403
aF656.5
aF12.0
aa(lp1101
F4.642
aF34.449
aS'A4c'
p1102
aF3.45
aF0.2981
aF0.3605
aF656.5
aF0.46199999999999997
aa(lp1103
F7.778
aF34.37
aS'A4c'
p1104
aF3.45
aF0.2981
aF0.3605
aF656.5
aF1.6110000000000002
aa(lp1105
F16.16
aF34.387
aS'A4c'
p1106
aF3.45
aF0.2981
aF0.3605
aF656.5
aF3.12
aa(lp1107
F33.352
aF34.751
aS'A4c'
p1108
aF3.45
aF0.2981
aF0.3605
aF656.5
aF6.09
aa(lp1109
F71.46
aF36.392
aS'A4c'
p1110
aF3.45
aF0.2981
aF0.3605
aF656.5
aF12.0
aa(lp1111
F0.0
aF44.464
aS'A4c'
p1112
aF3.45
aF0.3975
aF0.4806
aF656.5
aF0.46199999999999997
aa(lp1113
F4.628
aF44.072
aS'A4c'
p1114
aF3.45
aF0.3975
aF0.4806
aF656.5
aF1.6110000000000002
aa(lp1115
F8.459
aF43.726
aS'A4c'
p1116
aF3.45
aF0.3975
aF0.4806
aF656.5
aF3.12
aa(lp1117
F24.779
aF43.485
aS'A4c'
p1118
aF3.45
aF0.3975
aF0.4806
aF656.5
aF6.09
aa(lp1119
F58.15
aF44.198
aS'A4c'
p1120
aF3.45
aF0.3975
aF0.4806
aF656.5
aF12.0
aa(lp1121
F0.0
aF8.16
aS'A4c'
p1122
aF0.0006
aF0.0
aF0.0
aF1196.5
aF0.46199999999999997
aa(lp1123
F0.0
aF5.469
aS'A4c'
p1124
aF0.0006
aF0.0
aF0.0
aF1196.5
aF1.6110000000000002
aa(lp1125
F4.851
aF6.435
aS'A4c'
p1126
aF0.0006
aF0.0
aF0.0
aF1196.5
aF3.12
aa(lp1127
F27.602
aF8.336
aS'A4c'
p1128
aF0.0006
aF0.0
aF0.0
aF1196.5
aF6.09
aa(lp1129
F71.705
aF12.036
aS'A4c'
p1130
aF0.0006
aF0.0
aF0.0
aF1196.5
aF12.0
aa(lp1131
F0.0
aF24.536
aS'A4c'
p1132
aF0.0006
aF0.0497
aF0.0601
aF1196.5
aF0.46199999999999997
aa(lp1133
F0.0
aF18.252
aS'A4c'
p1134
aF0.0006
aF0.0497
aF0.0601
aF1196.5
aF1.6110000000000002
aa(lp1135
F0.0
aF17.456
aS'A4c'
p1136
aF0.0006
aF0.0497
aF0.0601
aF1196.5
aF3.12
aa(lp1137
F10.647
aF17.832
aS'A4c'
p1138
aF0.0006
aF0.0497
aF0.0601
aF1196.5
aF6.09
aa(lp1139
F50.168
aF18.906
aS'A4c'
p1140
aF0.0006
aF0.0497
aF0.0601
aF1196.5
aF12.0
aa(lp1141
F0.0
aF40.094
aS'A4c'
p1142
aF0.0006
aF0.0994
aF0.1202
aF1196.5
aF0.46199999999999997
aa(lp1143
F0.0
aF29.822
aS'A4c'
p1144
aF0.0006
aF0.0994
aF0.1202
aF1196.5
aF1.6110000000000002
aa(lp1145
F0.0
aF27.809
aS'A4c'
p1146
aF0.0006
aF0.0994
aF0.1202
aF1196.5
aF3.12
aa(lp1147
F1.446
aF27.162
aS'A4c'
p1148
aF0.0006
aF0.0994
aF0.1202
aF1196.5
aF6.09
aa(lp1149
F35.154
aF28.132
aS'A4c'
p1150
aF0.0006
aF0.0994
aF0.1202
aF1196.5
aF12.0
aa(lp1151
F0.0
aF55.735
aS'A4c'
p1152
aF0.0006
aF0.1491
aF0.1802
aF1196.5
aF0.46199999999999997
aa(lp1153
F0.0
aF41.472
aS'A4c'
p1154
aF0.0006
aF0.1491
aF0.1802
aF1196.5
aF1.6110000000000002
aa(lp1155
F0.0
aF38.296
aS'A4c'
p1156
aF0.0006
aF0.1491
aF0.1802
aF1196.5
aF3.12
aa(lp1157
F0.0
aF36.558
aS'A4c'
p1158
aF0.0006
aF0.1491
aF0.1802
aF1196.5
aF6.09
aa(lp1159
F24.161
aF36.373
aS'A4c'
p1160
aF0.0006
aF0.1491
aF0.1802
aF1196.5
aF12.0
aa(lp1161
F0.0
aF71.545
aS'A4c'
p1162
aF0.0006
aF0.1988
aF0.2403
aF1196.5
aF0.46199999999999997
aa(lp1163
F0.0
aF53.257
aS'A4c'
p1164
aF0.0006
aF0.1988
aF0.2403
aF1196.5
aF1.6110000000000002
aa(lp1165
F0.0
aF48.94
aS'A4c'
p1166
aF0.0006
aF0.1988
aF0.2403
aF1196.5
aF3.12
aa(lp1167
F0.0
aF46.08
aS'A4c'
p1168
aF0.0006
aF0.1988
aF0.2403
aF1196.5
aF6.09
aa(lp1169
F14.88
aF44.741
aS'A4c'
p1170
aF0.0006
aF0.1988
aF0.2403
aF1196.5
aF12.0
aa(lp1171
F0.0
aF103.807
aS'A4c'
p1172
aF0.0006
aF0.2981
aF0.3605
aF1196.5
aF0.46199999999999997
aa(lp1173
F0.0
aF77.425
aS'A4c'
p1174
aF0.0006
aF0.2981
aF0.3605
aF1196.5
aF1.6110000000000002
aa(lp1175
F0.0
aF70.773
aS'A4c'
p1176
aF0.0006
aF0.2981
aF0.3605
aF1196.5
aF3.12
aa(lp1177
F0.0
aF65.709
aS'A4c'
p1178
aF0.0006
aF0.2981
aF0.3605
aF1196.5
aF6.09
aa(lp1179
F6.079
aF61.886
aS'A4c'
p1180
aF0.0006
aF0.2981
aF0.3605
aF1196.5
aF12.0
aa(lp1181
F0.0
aF128.627
aS'A4c'
p1182
aF0.0006
aF0.3975
aF0.4806
aF1196.5
aF0.46199999999999997
aa(lp1183
F0.0
aF95.447
aS'A4c'
p1184
aF0.0006
aF0.3975
aF0.4806
aF1196.5
aF1.6110000000000002
aa(lp1185
F0.0
aF86.853
aS'A4c'
p1186
aF0.0006
aF0.3975
aF0.4806
aF1196.5
aF3.12
aa(lp1187
F0.0
aF80.062
aS'A4c'
p1188
aF0.0006
aF0.3975
aF0.4806
aF1196.5
aF6.09
aa(lp1189
F1.368
aF74.291
aS'A4c'
p1190
aF0.0006
aF0.3975
aF0.4806
aF1196.5
aF12.0
aa(lp1191
F0.0
aF4.639
aS'A4c'
p1192
aF0.5
aF0.0
aF0.0
aF1196.5
aF0.46199999999999997
aa(lp1193
F5.429
aF5.385
aS'A4c'
p1194
aF0.5
aF0.0
aF0.0
aF1196.5
aF1.6110000000000002
aa(lp1195
F18.024
aF6.371
aS'A4c'
p1196
aF0.5
aF0.0
aF0.0
aF1196.5
aF3.12
aa(lp1197
F39.678
aF8.307
aS'A4c'
p1198
aF0.5
aF0.0
aF0.0
aF1196.5
aF6.09
aa(lp1199
F84.275
aF12.052
aS'A4c'
p1200
aF0.5
aF0.0
aF0.0
aF1196.5
aF12.0
aa(lp1201
F0.0
aF14.987
aS'A4c'
p1202
aF0.5
aF0.0497
aF0.0601
aF1196.5
aF0.46199999999999997
aa(lp1203
F0.0
aF14.718
aS'A4c'
p1204
aF0.5
aF0.0497
aF0.0601
aF1196.5
aF1.6110000000000002
aa(lp1205
F2.902
aF14.92
aS'A4c'
p1206
aF0.5
aF0.0497
aF0.0601
aF1196.5
aF3.12
aa(lp1207
F22.347
aF14.848
aS'A4c'
p1208
aF0.5
aF0.0497
aF0.0601
aF1196.5
aF6.09
aa(lp1209
F63.97
aF18.09
aS'A4c'
p1210
aF0.5
aF0.0497
aF0.0601
aF1196.5
aF12.0
aa(lp1211
F0.0
aF25.407
aS'A4c'
p1212
aF0.5
aF0.0994
aF0.1202
aF1196.5
aF0.46199999999999997
aa(lp1213
F0.0
aF24.364
aS'A4c'
p1214
aF0.5
aF0.0994
aF0.1202
aF1196.5
aF1.6110000000000002
aa(lp1215
F0.0
aF24.006
aS'A4c'
p1216
aF0.5
aF0.0994
aF0.1202
aF1196.5
aF3.12
aa(lp1217
F10.632
aF24.204
aS'A4c'
p1218
aF0.5
aF0.0994
aF0.1202
aF1196.5
aF6.09
aa(lp1219
F47.217
aF25.929
aS'A4c'
p1220
aF0.5
aF0.0994
aF0.1202
aF1196.5
aF12.0
aa(lp1221
F0.0
aF35.932
aS'A4c'
p1222
aF0.5
aF0.1491
aF0.1802
aF1196.5
aF0.46199999999999997
aa(lp1223
F0.0
aF34.125
aS'A4c'
p1224
aF0.5
aF0.1491
aF0.1802
aF1196.5
aF1.6110000000000002
aa(lp1225
F0.0
aF33.153
aS'A4c'
p1226
aF0.5
aF0.1491
aF0.1802
aF1196.5
aF3.12
aa(lp1227
F4.692
aF32.621
aS'A4c'
p1228
aF0.5
aF0.1491
aF0.1802
aF1196.5
aF6.09
aa(lp1229
F35.231
aF33.313
aS'A4c'
p1230
aF0.5
aF0.1491
aF0.1802
aF1196.5
aF12.0
aa(lp1231
F0.0
aF46.545
aS'A4c'
p1232
aF0.5
aF0.1988
aF0.2403
aF1196.5
aF0.46199999999999997
aa(lp1233
F0.0
aF43.994
aS'A4c'
p1234
aF0.5
aF0.1988
aF0.2403
aF1196.5
aF1.6110000000000002
aa(lp1235
F0.0
aF42.408
aS'A4c'
p1236
aF0.5
aF0.1988
aF0.2403
aF1196.5
aF3.12
aa(lp1237
F0.0
aF41.107
aS'A4c'
p1238
aF0.5
aF0.1988
aF0.2403
aF1196.5
aF6.09
aa(lp1239
F26.101
aF40.841
aS'A4c'
p1240
aF0.5
aF0.1988
aF0.2403
aF1196.5
aF12.0
aa(lp1241
F0.0
aF68.17
aS'A4c'
p1242
aF0.5
aF0.2981
aF0.3605
aF1196.5
aF0.46199999999999997
aa(lp1243
F0.0
aF64.15
aS'A4c'
p1244
aF0.5
aF0.2981
aF0.3605
aF1196.5
aF1.6110000000000002
aa(lp1245
F0.0
aF61.36
aS'A4c'
p1246
aF0.5
aF0.2981
aF0.3605
aF1196.5
aF3.12
aa(lp1247
F0.0
aF58.434
aS'A4c'
p1248
aF0.5
aF0.2981
aF0.3605
aF1196.5
aF6.09
aa(lp1249
F12.635
aF56.236
aS'A4c'
p1250
aF0.5
aF0.2981
aF0.3605
aF1196.5
aF12.0
aa(lp1251
F0.0
aF84.907
aS'A4c'
p1252
aF0.5
aF0.3975
aF0.4806
aF1196.5
aF0.46199999999999997
aa(lp1253
F0.0
aF79.611
aS'A4c'
p1254
aF0.5
aF0.3975
aF0.4806
aF1196.5
aF1.6110000000000002
aa(lp1255
F0.0
aF75.824
aS'A4c'
p1256
aF0.5
aF0.3975
aF0.4806
aF1196.5
aF3.12
aa(lp1257
F0.0
aF71.605
aS'A4c'
p1258
aF0.5
aF0.3975
aF0.4806
aF1196.5
aF6.09
aa(lp1259
F6.577
aF67.796
aS'A4c'
p1260
aF0.5
aF0.3975
aF0.4806
aF1196.5
aF12.0
aa(lp1261
F1.386
aF4.624
aS'A4c'
p1262
aF0.75
aF0.0
aF0.0
aF1196.5
aF0.46199999999999997
aa(lp1263
F10.943
aF5.377
aS'A4c'
p1264
aF0.75
aF0.0
aF0.0
aF1196.5
aF1.6110000000000002
aa(lp1265
F23.807
aF6.37
aS'A4c'
p1266
aF0.75
aF0.0
aF0.0
aF1196.5
aF3.12
aa(lp1267
F46.414
aF8.317
aS'A4c'
p1268
aF0.75
aF0.0
aF0.0
aF1196.5
aF6.09
aa(lp1269
F90.081
aF12.076
aS'A4c'
p1270
aF0.75
aF0.0
aF0.0
aF1196.5
aF12.0
aa(lp1271
F0.0
aF13.525
aS'A4c'
p1272
aF0.75
aF0.0497
aF0.0601
aF1196.5
aF0.46199999999999997
aa(lp1273
F0.0
aF12.133
aS'A4c'
p1274
aF0.75
aF0.0497
aF0.0601
aF1196.5
aF1.6110000000000002
aa(lp1275
F8.27
aF12.861
aS'A4c'
p1276
aF0.75
aF0.0497
aF0.0601
aF1196.5
aF3.12
aa(lp1277
F27.751
aF14.412
aS'A4c'
p1278
aF0.75
aF0.0497
aF0.0601
aF1196.5
aF6.09
aa(lp1279
F70.029
aF17.777
aS'A4c'
p1280
aF0.75
aF0.0497
aF0.0601
aF1196.5
aF12.0
aa(lp1281
F0.0
aF23.091
aS'A4c'
p1282
aF0.75
aF0.0994
aF0.1202
aF1196.5
aF0.46199999999999997
aa(lp1283
F0.0
aF22.651
aS'A4c'
p1284
aF0.75
aF0.0994
aF0.1202
aF1196.5
aF1.6110000000000002
aa(lp1285
F0.0
aF22.557
aS'A4c'
p1286
aF0.75
aF0.0994
aF0.1202
aF1196.5
aF3.12
aa(lp1287
F14.328
aF23.003
aS'A4c'
p1288
aF0.75
aF0.0994
aF0.1202
aF1196.5
aF6.09
aa(lp1289
F52.984
aF25.053
aS'A4c'
p1290
aF0.75
aF0.0994
aF0.1202
aF1196.5
aF12.0
aa(lp1291
F0.0
aF32.783
aS'A4c'
p1292
aF0.75
aF0.1491
aF0.1802
aF1196.5
aF0.46199999999999997
aa(lp1293
F0.0
aF31.777
aS'A4c'
p1294
aF0.75
aF0.1491
aF0.1802
aF1196.5
aF1.6110000000000002
aa(lp1295
F0.0
aF31.22
aS'A4c'
p1296
aF0.75
aF0.1491
aF0.1802
aF1196.5
aF3.12
aa(lp1297
F7.181
aF31.012
aS'A4c'
p1298
aF0.75
aF0.1491
aF0.1802
aF1196.5
aF6.09
aa(lp1299
F40.705
aF32.048
aS'A4c'
p1300
aF0.75
aF0.1491
aF0.1802
aF1196.5
aF12.0
aa(lp1301
F0.0
aF42.564
aS'A4c'
p1302
aF0.75
aF0.1988
aF0.2403
aF1196.5
aF0.46199999999999997
aa(lp1303
F0.0
aF41.011
aS'A4c'
p1304
aF0.75
aF0.1988
aF0.2403
aF1196.5
aF1.6110000000000002
aa(lp1305
F0.0
aF39.938
aS'A4c'
p1306
aF0.75
aF0.1988
aF0.2403
aF1196.5
aF3.12
aa(lp1307
F1.667
aF39.072
aS'A4c'
p1308
aF0.75
aF0.1988
aF0.2403
aF1196.5
aF6.09
aa(lp1309
F31.107
aF39.207
aS'A4c'
p1310
aF0.75
aF0.1988
aF0.2403
aF1196.5
aF12.0
aa(lp1311
F0.0
aF62.481
aS'A4c'
p1312
aF0.75
aF0.2981
aF0.3605
aF1196.5
aF0.46199999999999997
aa(lp1313
F0.0
aF59.857
aS'A4c'
p1314
aF0.75
aF0.2981
aF0.3605
aF1196.5
aF1.6110000000000002
aa(lp1315
F0.0
aF57.766
aS'A4c'
p1316
aF0.75
aF0.2981
aF0.3605
aF1196.5
aF3.12
aa(lp1317
F0.0
aF55.486
aS'A4c'
p1318
aF0.75
aF0.2981
aF0.3605
aF1196.5
aF6.09
aa(lp1319
F16.045
aF53.857
aS'A4c'
p1320
aF0.75
aF0.2981
aF0.3605
aF1196.5
aF12.0
aa(lp1321
F0.0
aF78.086
aS'A4c'
p1322
aF0.75
aF0.3975
aF0.4806
aF1196.5
aF0.46199999999999997
aa(lp1323
F0.0
aF74.549
aS'A4c'
p1324
aF0.75
aF0.3975
aF0.4806
aF1196.5
aF1.6110000000000002
aa(lp1325
F0.0
aF71.634
aS'A4c'
p1326
aF0.75
aF0.3975
aF0.4806
aF1196.5
aF3.12
aa(lp1327
F0.0
aF68.182
aS'A4c'
p1328
aF0.75
aF0.3975
aF0.4806
aF1196.5
aF6.09
aa(lp1329
F8.731
aF65.097
aS'A4c'
p1330
aF0.75
aF0.3975
aF0.4806
aF1196.5
aF12.0
aa(lp1331
F8.562
aF4.63
aS'A4c'
p1332
aF1.0
aF0.0
aF0.0
aF1196.5
aF0.46199999999999997
aa(lp1333
F18.114
aF5.385
aS'A4c'
p1334
aF1.0
aF0.0
aF0.0
aF1196.5
aF1.6110000000000002
aa(lp1335
F29.209
aF6.383
aS'A4c'
p1336
aF1.0
aF0.0
aF0.0
aF1196.5
aF3.12
aa(lp1337
F51.896
aF8.337
aS'A4c'
p1338
aF1.0
aF0.0
aF0.0
aF1196.5
aF6.09
aa(lp1339
F95.604
aF12.106
aS'A4c'
p1340
aF1.0
aF0.0
aF0.0
aF1196.5
aF12.0
aa(lp1341
F0.0
aF11.09
aS'A4c'
p1342
aF1.0
aF0.0497
aF0.0601
aF1196.5
aF0.46199999999999997
aa(lp1343
F2.899
aF11.644
aS'A4c'
p1344
aF1.0
aF0.0497
aF0.0601
aF1196.5
aF1.6110000000000002
aa(lp1345
F12.012
aF12.41
aS'A4c'
p1346
aF1.0
aF0.0497
aF0.0601
aF1196.5
aF3.12
aa(lp1347
F32.986
aF14.037
aS'A4c'
p1348
aF1.0
aF0.0497
aF0.0601
aF1196.5
aF6.09
aa(lp1349
F75.848
aF17.507
aS'A4c'
p1350
aF1.0
aF0.0497
aF0.0601
aF1196.5
aF12.0
aa(lp1351
F0.0
aF21.378
aS'A4c'
p1352
aF1.0
aF0.0994
aF0.1202
aF1196.5
aF0.46199999999999997
aa(lp1353
F0.0
aF21.214
aS'A4c'
p1354
aF1.0
aF0.0994
aF0.1202
aF1196.5
aF1.6110000000000002
aa(lp1355
F4.36
aF21.303
aS'A4c'
p1356
aF1.0
aF0.0994
aF0.1202
aF1196.5
aF3.12
aa(lp1357
F19.298
aF21.949
aS'A4c'
p1358
aF1.0
aF0.0994
aF0.1202
aF1196.5
aF6.09
aa(lp1359
F58.536
aF24.308
aS'A4c'
p1360
aF1.0
aF0.0994
aF0.1202
aF1196.5
aF12.0
aa(lp1361
F0.0
aF30.42
aS'A4c'
p1362
aF1.0
aF0.1491
aF0.1802
aF1196.5
aF0.46199999999999997
aa(lp1363
F0.0
aF29.844
aS'A4c'
p1364
aF1.0
aF0.1491
aF0.1802
aF1196.5
aF1.6110000000000002
aa(lp1365
F0.0
aF29.532
aS'A4c'
p1366
aF1.0
aF0.1491
aF0.1802
aF1196.5
aF3.12
aa(lp1367
F11.257
aF29.578
aS'A4c'
p1368
aF1.0
aF0.1491
aF0.1802
aF1196.5
aF6.09
aa(lp1369
F46.077
aF30.925
aS'A4c'
p1370
aF1.0
aF0.1491
aF0.1802
aF1196.5
aF12.0
aa(lp1371
F0.0
aF39.559
aS'A4c'
p1372
aF1.0
aF0.1988
aF0.2403
aF1196.5
aF0.46199999999999997
aa(lp1373
F0.0
aF38.533
aS'A4c'
p1374
aF1.0
aF0.1988
aF0.2403
aF1196.5
aF1.6110000000000002
aa(lp1375
F0.0
aF37.811
aS'A4c'
p1376
aF1.0
aF0.1988
aF0.2403
aF1196.5
aF3.12
aa(lp1377
F5.95
aF37.267
aS'A4c'
p1378
aF1.0
aF0.1988
aF0.2403
aF1196.5
aF6.09
aa(lp1379
F36.111
aF37.744
aS'A4c'
p1380
aF1.0
aF0.1988
aF0.2403
aF1196.5
aF12.0
aa(lp1381
F0.0
aF58.166
aS'A4c'
p1382
aF1.0
aF0.2981
aF0.3605
aF1196.5
aF0.46199999999999997
aa(lp1383
F0.0
aF56.266
aS'A4c'
p1384
aF1.0
aF0.2981
aF0.3605
aF1196.5
aF1.6110000000000002
aa(lp1385
F0.0
aF54.657
aS'A4c'
p1386
aF1.0
aF0.2981
aF0.3605
aF1196.5
aF3.12
aa(lp1387
F0.0
aF52.876
aS'A4c'
p1388
aF1.0
aF0.2981
aF0.3605
aF1196.5
aF6.09
aa(lp1389
F20.967
aF51.708
aS'A4c'
p1390
aF1.0
aF0.2981
aF0.3605
aF1196.5
aF12.0
aa(lp1391
F0.0
aF72.974
aS'A4c'
p1392
aF1.0
aF0.3975
aF0.4806
aF1196.5
aF0.46199999999999997
aa(lp1393
F0.0
aF70.354
aS'A4c'
p1394
aF1.0
aF0.3975
aF0.4806
aF1196.5
aF1.6110000000000002
aa(lp1395
F0.0
aF68.014
aS'A4c'
p1396
aF1.0
aF0.3975
aF0.4806
aF1196.5
aF3.12
aa(lp1397
F0.0
aF65.163
aS'A4c'
p1398
aF1.0
aF0.3975
aF0.4806
aF1196.5
aF6.09
aa(lp1399
F12.306
aF62.662
aS'A4c'
p1400
aF1.0
aF0.3975
aF0.4806
aF1196.5
aF12.0
aa(lp1401
F13.835
aF4.648
aS'A4c'
p1402
aF1.25
aF0.0
aF0.0
aF1196.5
aF0.46199999999999997
aa(lp1403
F23.366
aF5.407
aS'A4c'
p1404
aF1.25
aF0.0
aF0.0
aF1196.5
aF1.6110000000000002
aa(lp1405
F34.258
aF6.407
aS'A4c'
p1406
aF1.25
aF0.0
aF0.0
aF1196.5
aF3.12
aa(lp1407
F57.115
aF8.365
aS'A4c'
p1408
aF1.25
aF0.0
aF0.0
aF1196.5
aF6.09
aa(lp1409
F102.111
aF12.142
aS'A4c'
p1410
aF1.25
aF0.0
aF0.0
aF1196.5
aF12.0
aa(lp1411
F0.0
aF10.634
aS'A4c'
p1412
aF1.25
aF0.0497
aF0.0601
aF1196.5
aF0.46199999999999997
aa(lp1413
F8.042
aF11.214
aS'A4c'
p1414
aF1.25
aF0.0497
aF0.0601
aF1196.5
aF1.6110000000000002
aa(lp1415
F15.679
aF12.025
aS'A4c'
p1416
aF1.25
aF0.0497
aF0.0601
aF1196.5
aF3.12
aa(lp1417
F38.051
aF13.718
aS'A4c'
p1418
aF1.25
aF0.0497
aF0.0601
aF1196.5
aF6.09
aa(lp1419
F81.437
aF17.275
aS'A4c'
p1420
aF1.25
aF0.0497
aF0.0601
aF1196.5
aF12.0
aa(lp1421
F0.0
aF19.976
aS'A4c'
p1422
aF1.25
aF0.0994
aF0.1202
aF1196.5
aF0.46199999999999997
aa(lp1423
F0.0
aF19.979
aS'A4c'
p1424
aF1.25
aF0.0994
aF0.1202
aF1196.5
aF1.6110000000000002
aa(lp1425
F6.821
aF20.198
aS'A4c'
p1426
aF1.25
aF0.0994
aF0.1202
aF1196.5
aF3.12
aa(lp1427
F25.102
aF21.025
aS'A4c'
p1428
aF1.25
aF0.0994
aF0.1202
aF1196.5
aF6.09
aa(lp1429
F65.253
aF23.666
aS'A4c'
p1430
aF1.25
aF0.0994
aF0.1202
aF1196.5
aF12.0
aa(lp1431
F0.0
aF28.508
aS'A4c'
p1432
aF1.25
aF0.1491
aF0.1802
aF1196.5
aF0.46199999999999997
aa(lp1433
F0.0
aF28.183
aS'A4c'
p1434
aF1.25
aF0.1491
aF0.1802
aF1196.5
aF1.6110000000000002
aa(lp1435
F1.312
aF28.042
aS'A4c'
p1436
aF1.25
aF0.1491
aF0.1802
aF1196.5
aF3.12
aa(lp1437
F14.532
aF28.294
aS'A4c'
p1438
aF1.25
aF0.1491
aF0.1802
aF1196.5
aF6.09
aa(lp1439
F51.351
aF29.92
aS'A4c'
p1440
aF1.25
aF0.1491
aF0.1802
aF1196.5
aF12.0
aa(lp1441
F0.0
aF37.111
aS'A4c'
p1442
aF1.25
aF0.1988
aF0.2403
aF1196.5
aF0.46199999999999997
aa(lp1443
F0.0
aF36.42
aS'A4c'
p1444
aF1.25
aF0.1988
aF0.2403
aF1196.5
aF1.6110000000000002
aa(lp1445
F0.0
aF35.933
aS'A4c'
p1446
aF1.25
aF0.1988
aF0.2403
aF1196.5
aF3.12
aa(lp1447
F8.234
aF35.642
aS'A4c'
p1448
aF1.25
aF0.1988
aF0.2403
aF1196.5
aF6.09
aa(lp1449
F41.103
aF36.427
aS'A4c'
p1450
aF1.25
aF0.1988
aF0.2403
aF1196.5
aF12.0
aa(lp1451
F0.0
aF54.617
aS'A4c'
p1452
aF1.25
aF0.2981
aF0.3605
aF1196.5
aF0.46199999999999997
aa(lp1453
F0.0
aF53.183
aS'A4c'
p1454
aF1.25
aF0.2981
aF0.3605
aF1196.5
aF1.6110000000000002
aa(lp1455
F0.0
aF51.917
aS'A4c'
p1456
aF1.25
aF0.2981
aF0.3605
aF1196.5
aF3.12
aa(lp1457
F1.445
aF50.528
aS'A4c'
p1458
aF1.25
aF0.2981
aF0.3605
aF1196.5
aF6.09
aa(lp1459
F26.135
aF49.763
aS'A4c'
p1460
aF1.25
aF0.2981
aF0.3605
aF1196.5
aF12.0
aa(lp1461
F0.0
aF68.819
aS'A4c'
p1462
aF1.25
aF0.3975
aF0.4806
aF1196.5
aF0.46199999999999997
aa(lp1463
F0.0
aF66.758
aS'A4c'
p1464
aF1.25
aF0.3975
aF0.4806
aF1196.5
aF1.6110000000000002
aa(lp1465
F0.0
aF64.837
aS'A4c'
p1466
aF1.25
aF0.3975
aF0.4806
aF1196.5
aF3.12
aa(lp1467
F0.0
aF62.464
aS'A4c'
p1468
aF1.25
aF0.3975
aF0.4806
aF1196.5
aF6.09
aa(lp1469
F15.198
aF60.448
aS'A4c'
p1470
aF1.25
aF0.3975
aF0.4806
aF1196.5
aF12.0
aa(lp1471
F19.943
aF4.676
aS'A4c'
p1472
aF1.5
aF0.0
aF0.0
aF1196.5
aF0.46199999999999997
aa(lp1473
F28.285
aF5.436
aS'A4c'
p1474
aF1.5
aF0.0
aF0.0
aF1196.5
aF1.6110000000000002
aa(lp1475
F39.017
aF6.439
aS'A4c'
p1476
aF1.5
aF0.0
aF0.0
aF1196.5
aF3.12
aa(lp1477
F62.095
aF8.398
aS'A4c'
p1478
aF1.5
aF0.0
aF0.0
aF1196.5
aF6.09
aa(lp1479
F107.268
aF12.182
aS'A4c'
p1480
aF1.5
aF0.0
aF0.0
aF1196.5
aF12.0
aa(lp1481
F4.997
aF10.231
aS'A4c'
p1482
aF1.5
aF0.0497
aF0.0601
aF1196.5
aF0.46199999999999997
aa(lp1483
F11.485
aF10.845
aS'A4c'
p1484
aF1.5
aF0.0497
aF0.0601
aF1196.5
aF1.6110000000000002
aa(lp1485
F22.642
aF11.688
aS'A4c'
p1486
aF1.5
aF0.0497
aF0.0601
aF1196.5
aF3.12
aa(lp1487
F42.93
aF13.444
aS'A4c'
p1488
aF1.5
aF0.0497
aF0.0601
aF1196.5
aF6.09
aa(lp1489
F86.795
aF17.075
aS'A4c'
p1490
aF1.5
aF0.0497
aF0.0601
aF1196.5
aF12.0
aa(lp1491
F0.0
aF18.768
aS'A4c'
p1492
aF1.5
aF0.0994
aF0.1202
aF1196.5
aF0.46199999999999997
aa(lp1493
F2.902
aF18.897
aS'A4c'
p1494
aF1.5
aF0.0994
aF0.1202
aF1196.5
aF1.6110000000000002
aa(lp1495
F10.944
aF19.218
aS'A4c'
p1496
aF1.5
aF0.0994
aF0.1202
aF1196.5
aF3.12
aa(lp1497
F29.714
aF20.221
aS'A4c'
p1498
aF1.5
aF0.0994
aF0.1202
aF1196.5
aF6.09
aa(lp1499
F70.635
aF21.638
aS'A4c'
p1500
aF1.5
aF0.0994
aF0.1202
aF1196.5
aF12.0
aa(lp1501
F0.0
aF26.888
aS'A4c'
p1502
aF1.5
aF0.1491
aF0.1802
aF1196.5
aF0.46199999999999997
aa(lp1503
F0.0
aF26.713
aS'A4c'
p1504
aF1.5
aF0.1491
aF0.1802
aF1196.5
aF1.6110000000000002
aa(lp1505
F4.952
aF26.712
aS'A4c'
p1506
aF1.5
aF0.1491
aF0.1802
aF1196.5
aF3.12
aa(lp1507
F19.102
aF27.138
aS'A4c'
p1508
aF1.5
aF0.1491
aF0.1802
aF1196.5
aF6.09
aa(lp1509
F56.489
aF29.013
aS'A4c'
p1510
aF1.5
aF0.1491
aF0.1802
aF1196.5
aF12.0
aa(lp1511
F0.0
aF35.032
aS'A4c'
p1512
aF1.5
aF0.1988
aF0.2403
aF1196.5
aF0.46199999999999997
aa(lp1513
F0.0
aF34.571
aS'A4c'
p1514
aF1.5
aF0.1988
aF0.2403
aF1196.5
aF1.6110000000000002
aa(lp1515
F0.0
aF34.245
aS'A4c'
p1516
aF1.5
aF0.1988
aF0.2403
aF1196.5
aF3.12
aa(lp1517
F12.181
aF34.168
aS'A4c'
p1518
aF1.5
aF0.1988
aF0.2403
aF1196.5
aF6.09
aa(lp1519
F46.021
aF35.234
aS'A4c'
p1520
aF1.5
aF0.1988
aF0.2403
aF1196.5
aF12.0
aa(lp1521
F0.0
aF51.59
aS'A4c'
p1522
aF1.5
aF0.2981
aF0.3605
aF1196.5
aF0.46199999999999997
aa(lp1523
F0.0
aF50.475
aS'A4c'
p1524
aF1.5
aF0.2981
aF0.3605
aF1196.5
aF1.6110000000000002
aa(lp1525
F0.0
aF49.486
aS'A4c'
p1526
aF1.5
aF0.2981
aF0.3605
aF1196.5
aF3.12
aa(lp1527
F4.798
aF48.402
aS'A4c'
p1528
aF1.5
aF0.2981
aF0.3605
aF1196.5
aF6.09
aa(lp1529
F30.44
aF47.991
aS'A4c'
p1530
aF1.5
aF0.2981
aF0.3605
aF1196.5
aF12.0
aa(lp1531
F0.0
aF65.273
aS'A4c'
p1532
aF1.5
aF0.3975
aF0.4806
aF1196.5
aF0.46199999999999997
aa(lp1533
F0.0
aF63.598
aS'A4c'
p1534
aF1.5
aF0.3975
aF0.4806
aF1196.5
aF1.6110000000000002
aa(lp1535
F0.0
aF62.008
aS'A4c'
p1536
aF1.5
aF0.3975
aF0.4806
aF1196.5
aF3.12
aa(lp1537
F0.0
aF60.032
aS'A4c'
p1538
aF1.5
aF0.3975
aF0.4806
aF1196.5
aF6.09
aa(lp1539
F19.558
aF58.426
aS'A4c'
p1540
aF1.5
aF0.3975
aF0.4806
aF1196.5
aF12.0
aa(lp1541
F33.378
aF4.795
aS'A4c'
p1542
aF2.25
aF0.0
aF0.0
aF1196.5
aF0.46199999999999997
aa(lp1543
F42.805
aF5.554
aS'A4c'
p1544
aF2.25
aF0.0
aF0.0
aF1196.5
aF1.6110000000000002
aa(lp1545
F53.819
aF6.559
aS'A4c'
p1546
aF2.25
aF0.0
aF0.0
aF1196.5
aF3.12
aa(lp1547
F75.706
aF8.525
aS'A4c'
p1548
aF2.25
aF0.0
aF0.0
aF1196.5
aF6.09
aa(lp1549
F121.356
aF12.317
aS'A4c'
p1550
aF2.25
aF0.0
aF0.0
aF1196.5
aF12.0
aa(lp1551
F17.895
aF8.192
aS'A4c'
p1552
aF2.25
aF0.0497
aF0.0601
aF1196.5
aF0.46199999999999997
aa(lp1553
F25.597
aF8.873
aS'A4c'
p1554
aF2.25
aF0.0497
aF0.0601
aF1196.5
aF1.6110000000000002
aa(lp1555
F35.876
aF9.78
aS'A4c'
p1556
aF2.25
aF0.0497
aF0.0601
aF1196.5
aF3.12
aa(lp1557
F58.033
aF11.578
aS'A4c'
p1558
aF2.25
aF0.0497
aF0.0601
aF1196.5
aF6.09
aa(lp1559
F101.587
aF16.618
aS'A4c'
p1560
aF2.25
aF0.0497
aF0.0601
aF1196.5
aF12.0
aa(lp1561
F6.687
aF14.509
aS'A4c'
p1562
aF2.25
aF0.0994
aF0.1202
aF1196.5
aF0.46199999999999997
aa(lp1563
F12.986
aF15.032
aS'A4c'
p1564
aF2.25
aF0.0994
aF0.1202
aF1196.5
aF1.6110000000000002
aa(lp1565
F23.636
aF15.764
aS'A4c'
p1566
aF2.25
aF0.0994
aF0.1202
aF1196.5
aF3.12
aa(lp1567
F43.009
aF17.313
aS'A4c'
p1568
aF2.25
aF0.0994
aF0.1202
aF1196.5
aF6.09
aa(lp1569
F85.727
aF20.635
aS'A4c'
p1570
aF2.25
aF0.0994
aF0.1202
aF1196.5
aF12.0
aa(lp1571
F1.293
aF23.035
aS'A4c'
p1572
aF2.25
aF0.1491
aF0.1802
aF1196.5
aF0.46199999999999997
aa(lp1573
F6.362
aF23.152
aS'A4c'
p1574
aF2.25
aF0.1491
aF0.1802
aF1196.5
aF1.6110000000000002
aa(lp1575
F13.57
aF23.43
aS'A4c'
p1576
aF2.25
aF0.1491
aF0.1802
aF1196.5
aF3.12
aa(lp1577
F32.4
aF24.3
aS'A4c'
p1578
aF2.25
aF0.1491
aF0.1802
aF1196.5
aF6.09
aa(lp1579
F72.558
aF26.815
aS'A4c'
p1580
aF2.25
aF0.1491
aF0.1802
aF1196.5
aF12.0
aa(lp1581
F0.0
aF30.16
aS'A4c'
p1582
aF2.25
aF0.1988
aF0.2403
aF1196.5
aF0.46199999999999997
aa(lp1583
F1.463
aF30.049
aS'A4c'
p1584
aF2.25
aF0.1988
aF0.2403
aF1196.5
aF1.6110000000000002
aa(lp1585
F7.6
aF30.071
aS'A4c'
p1586
aF2.25
aF0.1988
aF0.2403
aF1196.5
aF3.12
aa(lp1587
F24.217
aF30.476
aS'A4c'
p1588
aF2.25
aF0.1988
aF0.2403
aF1196.5
aF6.09
aa(lp1589
F60.276
aF32.248
aS'A4c'
p1590
aF2.25
aF0.1988
aF0.2403
aF1196.5
aF12.0
aa(lp1591
F0.0
aF44.504
aS'A4c'
p1592
aF2.25
aF0.2981
aF0.3605
aF1196.5
aF0.46199999999999997
aa(lp1593
F0.0
aF43.965
aS'A4c'
p1594
aF2.25
aF0.2981
aF0.3605
aF1196.5
aF1.6110000000000002
aa(lp1595
F1.331
aF43.478
aS'A4c'
p1596
aF2.25
aF0.2981
aF0.3605
aF1196.5
aF3.12
aa(lp1597
F11.885
aF43.049
aS'A4c'
p1598
aF2.25
aF0.2981
aF0.3605
aF1196.5
aF6.09
aa(lp1599
F43.361
aF43.489
aS'A4c'
p1600
aF2.25
aF0.2981
aF0.3605
aF1196.5
aF12.0
aa(lp1601
F0.0
aF56.972
aS'A4c'
p1602
aF2.25
aF0.3975
aF0.4806
aF1196.5
aF0.46199999999999997
aa(lp1603
F0.0
aF55.998
aS'A4c'
p1604
aF2.25
aF0.3975
aF0.4806
aF1196.5
aF1.6110000000000002
aa(lp1605
F0.0
aF55.059
aS'A4c'
p1606
aF2.25
aF0.3975
aF0.4806
aF1196.5
aF3.12
aa(lp1607
F5.914
aF53.904
aS'A4c'
p1608
aF2.25
aF0.3975
aF0.4806
aF1196.5
aF6.09
aa(lp1609
F31.391
aF53.27
aS'A4c'
p1610
aF2.25
aF0.3975
aF0.4806
aF1196.5
aF12.0
aa(lp1611
F51.906
aF5.007
aS'A4c'
p1612
aF3.45
aF0.0
aF0.0
aF1196.5
aF0.46199999999999997
aa(lp1613
F60.113
aF5.763
aS'A4c'
p1614
aF3.45
aF0.0
aF0.0
aF1196.5
aF1.6110000000000002
aa(lp1615
F71.056
aF6.767
aS'A4c'
p1616
aF3.45
aF0.0
aF0.0
aF1196.5
aF3.12
aa(lp1617
F94.352
aF8.735
aS'A4c'
p1618
aF3.45
aF0.0
aF0.0
aF1196.5
aF6.09
aa(lp1619
F139.212
aF12.532
aS'A4c'
p1620
aF3.45
aF0.0
aF0.0
aF1196.5
aF12.0
aa(lp1621
F35.138
aF7.833
aS'A4c'
p1622
aF3.45
aF0.0497
aF0.0601
aF1196.5
aF0.46199999999999997
aa(lp1623
F42.928
aF8.538
aS'A4c'
p1624
aF3.45
aF0.0497
aF0.0601
aF1196.5
aF1.6110000000000002
aa(lp1625
F54.944
aF9.473
aS'A4c'
p1626
aF3.45
aF0.0497
aF0.0601
aF1196.5
aF3.12
aa(lp1627
F76.758
aF11.316
aS'A4c'
p1628
aF3.45
aF0.0497
aF0.0601
aF1196.5
aF6.09
aa(lp1629
F122.203
aF14.911
aS'A4c'
p1630
aF3.45
aF0.0497
aF0.0601
aF1196.5
aF12.0
aa(lp1631
F23.524
aF12.654
aS'A4c'
p1632
aF3.45
aF0.0994
aF0.1202
aF1196.5
aF0.46199999999999997
aa(lp1633
F30.857
aF13.284
aS'A4c'
p1634
aF3.45
aF0.0994
aF0.1202
aF1196.5
aF1.6110000000000002
aa(lp1635
F40.814
aF14.142
aS'A4c'
p1636
aF3.45
aF0.0994
aF0.1202
aF1196.5
aF3.12
aa(lp1637
F62.668
aF15.9
aS'A4c'
p1638
aF3.45
aF0.0994
aF0.1202
aF1196.5
aF6.09
aa(lp1639
F105.751
aF19.489
aS'A4c'
p1640
aF3.45
aF0.0994
aF0.1202
aF1196.5
aF12.0
aa(lp1641
F13.537
aF18.792
aS'A4c'
p1642
aF3.45
aF0.1491
aF0.1802
aF1196.5
aF0.46199999999999997
aa(lp1643
F21.737
aF19.178
aS'A4c'
p1644
aF3.45
aF0.1491
aF0.1802
aF1196.5
aF1.6110000000000002
aa(lp1645
F30.924
aF19.774
aS'A4c'
p1646
aF3.45
aF0.1491
aF0.1802
aF1196.5
aF3.12
aa(lp1647
F50.212
aF19.756
aS'A4c'
p1648
aF3.45
aF0.1491
aF0.1802
aF1196.5
aF6.09
aa(lp1649
F92.959
aF22.969
aS'A4c'
p1650
aF3.45
aF0.1491
aF0.1802
aF1196.5
aF12.0
aa(lp1651
F7.636
aF24.685
aS'A4c'
p1652
aF3.45
aF0.1988
aF0.2403
aF1196.5
aF0.46199999999999997
aa(lp1653
F13.456
aF24.879
aS'A4c'
p1654
aF3.45
aF0.1988
aF0.2403
aF1196.5
aF1.6110000000000002
aa(lp1655
F23.224
aF25.236
aS'A4c'
p1656
aF3.45
aF0.1988
aF0.2403
aF1196.5
aF3.12
aa(lp1657
F41.114
aF26.203
aS'A4c'
p1658
aF3.45
aF0.1988
aF0.2403
aF1196.5
aF6.09
aa(lp1659
F81.886
aF28.772
aS'A4c'
p1660
aF3.45
aF0.1988
aF0.2403
aF1196.5
aF12.0
aa(lp1661
F1.372
aF36.599
aS'A4c'
p1662
aF3.45
aF0.2981
aF0.3605
aF1196.5
aF0.46199999999999997
aa(lp1663
F5.677
aF36.465
aS'A4c'
p1664
aF3.45
aF0.2981
aF0.3605
aF1196.5
aF1.6110000000000002
aa(lp1665
F11.453
aF36.419
aS'A4c'
p1666
aF3.45
aF0.2981
aF0.3605
aF1196.5
aF3.12
aa(lp1667
F27.47
aF36.667
aS'A4c'
p1668
aF3.45
aF0.2981
aF0.3605
aF1196.5
aF6.09
aa(lp1669
F62.486
aF38.119
aS'A4c'
p1670
aF3.45
aF0.2981
aF0.3605
aF1196.5
aF12.0
aa(lp1671
F0.0
aF47.832
aS'A4c'
p1672
aF3.45
aF0.3975
aF0.4806
aF1196.5
aF0.46199999999999997
aa(lp1673
F0.0
aF47.387
aS'A4c'
p1674
aF3.45
aF0.3975
aF0.4806
aF1196.5
aF1.6110000000000002
aa(lp1675
F5.515
aF46.965
aS'A4c'
p1676
aF3.45
aF0.3975
aF0.4806
aF1196.5
aF3.12
aa(lp1677
F17.051
aF46.597
aS'A4c'
p1678
aF3.45
aF0.3975
aF0.4806
aF1196.5
aF6.09
aa(lp1679
F48.425
aF47.052
aS'A4c'
p1680
aF3.45
aF0.3975
aF0.4806
aF1196.5
aF12.0
aa(lp1681
F172.31826463104326
aF11.337017811704834
aS'A4c'
p1682
aF13.8
aF0.0
aF0.0
aF71.5
aF0.46199999999999997
aa(lp1683
F171.4901022158609
aF9.962600349872776
ag1682
aF13.8
aF0.0
aF0.0
aF656.5
aF0.46199999999999997
aa(lp1684
F178.6220123869098
aF9.442657089341251
aS'A4c'
p1685
aF13.8
aF0.0
aF0.0
aF1196.5
aF0.46199999999999997
aa(lp1686
F181.06123854961834
aF12.114225190839694
ag1682
aF13.8
aF0.0
aF0.0
aF71.5
aF1.6110000000000002
aa(lp1687
F180.19460152671755
aF10.722494155534351
ag1682
aF13.8
aF0.0
aF0.0
aF656.5
aF1.6110000000000002
aa(lp1688
F187.2934715860899
aF10.191802030322307
ag1685
aF13.8
aF0.0
aF0.0
aF1196.5
aF1.6110000000000002
aa(lp1689
F192.52620431654677
aF13.11296834532374
aS'A4c'
p1690
aF13.8
aF0.0
aF0.0
aF71.5
aF3.12
aa(lp1691
F191.6136788818945
aF11.704358495203838
ag1690
aF13.8
aF0.0
aF0.0
aF656.5
aF3.12
aa(lp1692
F198.67348097721822
aF11.16390795563549
aS'A4c'
p1693
aF13.8
aF0.0
aF0.0
aF1196.5
aF3.12
aa(lp1694
F215.07968633093526
aF15.06376690647482
ag1690
aF13.8
aF0.0
aF0.0
aF71.5
aF6.09
aa(lp1695
F214.07999430455635
aF13.625914070743406
ag1690
aF13.8
aF0.0
aF0.0
aF656.5
aF6.09
aa(lp1696
F221.06583871103118
aF13.0692157793765
ag1693
aF13.8
aF0.0
aF0.0
aF1196.5
aF6.09
aa(lp1697
F260.022
aF18.805
aS'A4c'
p1698
aF13.8
aF0.0
aF0.0
aF71.5
aF12.0
aa(lp1699
F258.90631874999997
aF17.32926875
ag1698
aF13.8
aF0.0
aF0.0
aF656.5
aF12.0
aa(lp1700
F265.77862361111113
aF16.75937638888889
aS'A4c'
p1701
aF13.8
aF0.0
aF0.0
aF1196.5
aF12.0
aa(lp1702
F162.4386026437499
aF12.715398838158336
ag1682
aF13.8
aF0.0497
aF0.0601
aF71.5
aF0.46199999999999997
aa(lp1703
F161.14882723649185
aF11.289631732073605
ag1682
aF13.8
aF0.0497
aF0.0601
aF656.5
aF0.46199999999999997
aa(lp1704
F167.21213421305853
aF10.838697102001662
ag1685
aF13.8
aF0.0497
aF0.0601
aF1196.5
aF0.46199999999999997
aa(lp1705
F171.20518499687935
aF13.469759345143789
ag1682
aF13.8
aF0.0497
aF0.0601
aF71.5
aF1.6110000000000002
aa(lp1706
F169.88475210267237
aF12.0314892014439
ag1682
aF13.8
aF0.0497
aF0.0601
aF656.5
aF1.6110000000000002
aa(lp1707
F175.92093747094728
aF11.573827179279958
ag1685
aF13.8
aF0.0497
aF0.0601
aF1196.5
aF1.6110000000000002
aa(lp1708
F182.6950914148681
aF14.703867571603094
ag1690
aF13.8
aF0.0497
aF0.0601
aF71.5
aF3.12
aa(lp1709
F181.34083282734568
aF13.04620367026379
ag1690
aF13.8
aF0.0497
aF0.0601
aF656.5
aF3.12
aa(lp1710
F187.34427186631828
aF12.527915869093404
ag1693
aF13.8
aF0.0497
aF0.0601
aF1196.5
aF3.12
aa(lp1711
F205.29354427220488
aF17.298060866024162
ag1690
aF13.8
aF0.0497
aF0.0601
aF71.5
aF6.09
aa(lp1712
F203.87708032259474
aF15.070796092382697
ag1690
aF13.8
aF0.0497
aF0.0601
aF656.5
aF6.09
aa(lp1713
F209.81801866284331
aF14.398026216249642
ag1693
aF13.8
aF0.0497
aF0.0601
aF1196.5
aF6.09
aa(lp1714
F250.30955723270438
aF21.22498364779874
ag1698
aF13.8
aF0.0497
aF0.0601
aF71.5
aF12.0
aa(lp1715
F248.81083172693917
aF18.759556865828092
ag1698
aF13.8
aF0.0497
aF0.0601
aF656.5
aF12.0
aa(lp1716
F254.65544061320756
aF18.02576781446541
ag1701
aF13.8
aF0.0497
aF0.0601
aF1196.5
aF12.0
aa(lp1717
F153.16201062300956
aF14.630741334997678
aS'A4c'
p1718
aF13.8
aF0.0994
aF0.1202
aF71.5
aF0.46199999999999997
aa(lp1719
F151.23519973117075
aF12.74212850022138
ag1718
aF13.8
aF0.0994
aF0.1202
aF656.5
aF0.46199999999999997
aa(lp1720
F156.1730701473151
aF12.25748878788566
aS'A4c'
p1721
aF13.8
aF0.0994
aF0.1202
aF1196.5
aF0.46199999999999997
aa(lp1722
F161.9195737481396
aF15.382075512506601
ag1718
aF13.8
aF0.0994
aF0.1202
aF71.5
aF1.6110000000000002
aa(lp1723
F159.9831647725577
aF13.468916361963288
ag1718
aF13.8
aF0.0994
aF0.1202
aF656.5
aF1.6110000000000002
aa(lp1724
F164.9033610297742
aF12.976530891282053
ag1721
aF13.8
aF0.0994
aF0.1202
aF1196.5
aF1.6110000000000002
aa(lp1725
F173.39729923351885
aF16.666409585086647
aS'A4c'
p1726
aF13.8
aF0.0994
aF0.1202
aF71.5
aF3.12
aa(lp1727
F171.45385103753978
aF14.561780185308356
ag1726
aF13.8
aF0.0994
aF0.1202
aF656.5
aF3.12
aa(lp1728
F176.35205512395618
aF13.979684064637597
aS'A4c'
p1729
aF13.8
aF0.0994
aF0.1202
aF1196.5
aF3.12
aa(lp1730
F195.97154970182345
aF19.39625182751912
ag1726
aF13.8
aF0.0994
aF0.1202
aF71.5
aF6.09
aa(lp1731
F194.01802562081656
aF16.80667412755079
ag1726
aF13.8
aF0.0994
aF0.1202
aF656.5
aF6.09
aa(lp1732
F198.87377285403628
aF15.994014510431905
ag1729
aF13.8
aF0.0994
aF0.1202
aF1196.5
aF6.09
aa(lp1733
F240.9700830188679
aF23.386392452830187
aS'A4c'
p1734
aF13.8
aF0.0994
aF0.1202
aF71.5
aF12.0
aa(lp1735
F238.999175754717
aF20.52914363207547
ag1734
aF13.8
aF0.0994
aF0.1202
aF656.5
aF12.0
aa(lp1736
F243.7868416806429
aF19.75927036862334
aS'A4c'
p1737
aF13.8
aF0.0994
aF0.1202
aF1196.5
aF12.0
aa(lp1738
F144.7885083009266
aF17.3501768879927
ag1718
aF13.8
aF0.1491
aF0.1802
aF71.5
aF0.46199999999999997
aa(lp1739
F141.96196894578068
aF14.382508107626386
ag1718
aF13.8
aF0.1491
aF0.1802
aF656.5
aF0.46199999999999997
aa(lp1740
F145.6892955499944
aF13.710350818596936
ag1721
aF13.8
aF0.1491
aF0.1802
aF1196.5
aF0.46199999999999997
aa(lp1741
F153.48819268327813
aF18.128165749675933
ag1718
aF13.8
aF0.1491
aF0.1802
aF71.5
aF1.6110000000000002
aa(lp1742
F150.6929447991832
aF15.098669000642133
ag1718
aF13.8
aF0.1491
aF0.1802
aF656.5
aF1.6110000000000002
aa(lp1743
F154.41732924610318
aF14.410200491662266
ag1721
aF13.8
aF0.1491
aF0.1802
aF1196.5
aF1.6110000000000002
aa(lp1744
F164.89814813085383
aF19.185482003529252
ag1726
aF13.8
aF0.1491
aF0.1802
aF71.5
aF3.12
aa(lp1745
F162.1446961366454
aF16.337517199425363
ag1726
aF13.8
aF0.1491
aF0.1802
aF656.5
aF3.12
aa(lp1746
F165.86448021990708
aF15.56287218008989
ag1729
aF13.8
aF0.1491
aF0.1802
aF1196.5
aF3.12
aa(lp1747
F187.34461016424595
aF21.290630259264287
ag1726
aF13.8
aF0.1491
aF0.1802
aF71.5
aF6.09
aa(lp1748
F184.6738958712728
aF18.978315037249445
ag1726
aF13.8
aF0.1491
aF0.1802
aF656.5
aF6.09
aa(lp1749
F188.38412565495528
aF17.990098289428833
ag1729
aF13.8
aF0.1491
aF0.1802
aF1196.5
aF6.09
aa(lp1750
F232.18912452830187
aF25.160588679245283
ag1734
aF13.8
aF0.1491
aF0.1802
aF71.5
aF12.0
aa(lp1751
F229.6125532154088
aF22.806825864779874
ag1734
aF13.8
aF0.1491
aF0.1802
aF656.5
aF12.0
aa(lp1752
F233.29947918763102
aF22.192265969601678
ag1737
aF13.8
aF0.1491
aF0.1802
aF1196.5
aF12.0
aa(lp1753
F137.908895447053
aF20.336474412277756
aS'A4c'
p1754
aF13.8
aF0.1988
aF0.2403
aF71.5
aF0.46199999999999997
aa(lp1755
F133.92950635036087
aF16.930864999426547
ag1754
aF13.8
aF0.1988
aF0.2403
aF656.5
aF0.46199999999999997
aa(lp1756
F136.38673284168885
aF16.190675307499518
aS'A4c'
p1757
aF13.8
aF0.1988
aF0.2403
aF1196.5
aF0.46199999999999997
aa(lp1758
F146.5244769840127
aF21.110014952710163
ag1754
aF13.8
aF0.1988
aF0.2403
aF71.5
aF1.6110000000000002
aa(lp1759
F142.59608126126736
aF17.65441274769152
ag1754
aF13.8
aF0.1988
aF0.2403
aF656.5
aF1.6110000000000002
aa(lp1760
F145.0605481894701
aF16.901119268337816
ag1757
aF13.8
aF0.1988
aF0.2403
aF1196.5
aF1.6110000000000002
aa(lp1761
F157.82927299398216
aF22.113031613049184
aS'A4c'
p1762
aF13.8
aF0.1988
aF0.2403
aF71.5
aF3.12
aa(lp1763
F153.97097083530159
aF18.766487070064706
ag1762
aF13.8
aF0.1988
aF0.2403
aF656.5
aF3.12
aa(lp1764
F156.44404627193842
aF17.96610982706665
aS'A4c'
p1765
aF13.8
aF0.1988
aF0.2403
aF1196.5
aF3.12
aa(lp1766
F180.0723552255554
aF24.07841163205285
ag1762
aF13.8
aF0.1988
aF0.2403
aF71.5
aF6.09
aa(lp1767
F176.3541307877924
aF21.065121115130538
ag1762
aF13.8
aF0.1988
aF0.2403
aF656.5
aF6.09
aa(lp1768
F178.8435381099774
aF20.151793299194605
ag1765
aF13.8
aF0.1988
aF0.2403
aF1196.5
aF6.09
aa(lp1769
F224.52006289308176
aF27.922025157232707
aS'A4c'
p1770
aF13.8
aF0.1988
aF0.2403
aF71.5
aF12.0
aa(lp1771
F221.0449189308176
aF24.84082070754717
ag1770
aF13.8
aF0.1988
aF0.2403
aF656.5
aF12.0
aa(lp1772
F223.57699912997901
aF24.130080455974845
aS'A4c'
p1773
aF13.8
aF0.1988
aF0.2403
aF1196.5
aF12.0
aa(lp1774
F127.01986563285163
aF26.07744200873782
aS'A4c'
p1775
aF13.8
aF0.2981
aF0.3605
aF71.5
aF0.46199999999999997
aa(lp1776
F120.61485861836596
aF22.30355954927291
ag1775
aF13.8
aF0.2981
aF0.3605
aF656.5
aF0.46199999999999997
aa(lp1777
F120.53258670221628
aF21.603893755576713
aS'A4c'
p1778
aF13.8
aF0.2981
aF0.3605
aF1196.5
aF0.46199999999999997
aa(lp1779
F135.4598572351049
aF26.77412450669739
ag1775
aF13.8
aF0.2981
aF0.3605
aF71.5
aF1.6110000000000002
aa(lp1780
F129.13179338658944
aF22.99397963938499
ag1775
aF13.8
aF0.2981
aF0.3605
aF656.5
aF1.6110000000000002
aa(lp1781
F129.03991080465738
aF22.294287574935584
ag1778
aF13.8
aF0.2981
aF0.3605
aF1196.5
aF1.6110000000000002
aa(lp1782
F146.53629665987964
aF27.688189877381113
aS'A4c'
p1783
aF13.8
aF0.2981
aF0.3605
aF71.5
aF3.12
aa(lp1784
F140.31341353263807
aF23.902526667322746
ag1783
aF13.8
aF0.2981
aF0.3605
aF656.5
aF3.12
aa(lp1785
F140.2749219690562
aF23.204638792354793
aS'A4c'
p1786
aF13.8
aF0.2981
aF0.3605
aF1196.5
aF3.12
aa(lp1787
F168.33145596488848
aF29.48663478032668
ag1783
aF13.8
aF0.2981
aF0.3605
aF71.5
aF6.09
aa(lp1788
F162.31839232047568
aF25.69194755557441
ag1783
aF13.8
aF0.2981
aF0.3605
aF656.5
aF6.09
aa(lp1789
F162.42979848629523
aF24.998858898458593
ag1786
aF13.8
aF0.2981
aF0.3605
aF1196.5
aF6.09
aa(lp1790
F211.92480628930818
aF33.0907144654088
aS'A4c'
p1791
aF13.8
aF0.2981
aF0.3605
aF71.5
aF12.0
aa(lp1792
F206.33768284067085
aF29.270575225366873
ag1791
aF13.8
aF0.2981
aF0.3605
aF656.5
aF12.0
aa(lp1793
F206.55787554507336
aF28.576287966457024
aS'A4c'
p1794
aF13.8
aF0.2981
aF0.3605
aF1196.5
aF12.0
aa(lp1795
F117.52937913486005
aF31.585320610687024
ag1775
aF13.8
aF0.3975
aF0.4806
aF71.5
aF0.46199999999999997
aa(lp1796
F108.69868516221374
aF27.56821595101781
ag1775
aF13.8
aF0.3975
aF0.4806
aF656.5
aF0.46199999999999997
aa(lp1797
F106.09285719182924
aF26.98717408467628
ag1778
aF13.8
aF0.3975
aF0.4806
aF1196.5
aF0.46199999999999997
aa(lp1798
F125.79725763358778
aF32.170053435114504
ag1775
aF13.8
aF0.3975
aF0.4806
aF71.5
aF1.6110000000000002
aa(lp1799
F117.06755950620229
aF28.187575922391858
ag1775
aF13.8
aF0.3975
aF0.4806
aF656.5
aF1.6110000000000002
aa(lp1800
F114.41195903042833
aF27.620143983248514
ag1778
aF13.8
aF0.3975
aF0.4806
aF1196.5
aF1.6110000000000002
aa(lp1801
F136.64533237410072
aF32.95087050359712
ag1783
aF13.8
aF0.3975
aF0.4806
aF71.5
aF3.12
aa(lp1802
F128.04843992805755
aF29.01595980815348
ag1783
aF13.8
aF0.3975
aF0.4806
aF656.5
aF3.12
aa(lp1803
F125.50470716626698
aF28.468003317346124
ag1786
aF13.8
aF0.3975
aF0.4806
aF1196.5
aF3.12
aa(lp1804
F157.98944748201438
aF34.49641007194244
ag1783
aF13.8
aF0.3975
aF0.4806
aF71.5
aF6.09
aa(lp1805
F149.65405481115107
aF30.656539079736213
ag1783
aF13.8
aF0.3975
aF0.4806
aF656.5
aF6.09
aa(lp1806
F147.45081804756194
aF30.148001069144687
ag1786
aF13.8
aF0.3975
aF0.4806
aF1196.5
aF6.09
aa(lp1807
F200.767
aF37.705
ag1791
aF13.8
aF0.3975
aF0.4806
aF71.5
aF12.0
aa(lp1808
F192.95170416666667
aF34.02948958333333
ag1791
aF13.8
aF0.3975
aF0.4806
aF656.5
aF12.0
aa(lp1809
F190.87259722222223
aF33.57411527777778
ag1794
aF13.8
aF0.3975
aF0.4806
aF1196.5
aF12.0
aa(lp1810
F0.0
aF253.56297539675236
aS'A4c'
p1811
aF0.0006
aF1.1925
aF1.4418
aF71.5
aF0.46199999999999997
aa(lp1812
F0.0
aF257.5964620303095
ag1811
aF0.0006
aF1.1925
aF1.4418
aF656.5
aF0.46199999999999997
aa(lp1813
F0.0
aF285.1440391381045
aS'A4c'
p1814
aF0.0006
aF1.1925
aF1.4418
aF1196.5
aF0.46199999999999997
aa(lp1815
F0.0
aF241.83583530308016
ag1811
aF0.0006
aF1.1925
aF1.4418
aF71.5
aF1.6110000000000002
aa(lp1816
F0.0
aF237.7887853898059
ag1811
aF0.0006
aF1.1925
aF1.4418
aF656.5
aF1.6110000000000002
aa(lp1817
F0.0
aF254.14149984875093
ag1814
aF0.0006
aF1.1925
aF1.4418
aF1196.5
aF1.6110000000000002
aa(lp1818
F0.0
aF230.8075666404286
aS'A4c'
p1819
aF0.0006
aF1.1925
aF1.4418
aF71.5
aF3.12
aa(lp1820
F0.0
aF223.73532679200616
ag1819
aF0.0006
aF1.1925
aF1.4418
aF656.5
aF3.12
aa(lp1821
F0.0
aF235.05239972047664
aS'A4c'
p1822
aF0.0006
aF1.1925
aF1.4418
aF1196.5
aF3.12
aa(lp1823
F0.0
aF212.07063496218686
ag1819
aF0.0006
aF1.1925
aF1.4418
aF71.5
aF6.09
aa(lp1824
F0.0
aF204.19488814433996
ag1819
aF0.0006
aF1.1925
aF1.4418
aF656.5
aF6.09
aa(lp1825
F0.0
aF212.1633043225179
ag1822
aF0.0006
aF1.1925
aF1.4418
aF1196.5
aF6.09
aa(lp1826
F9.248084826807228
aF189.15232056350402
aS'A4c'
p1827
aF0.0006
aF1.1925
aF1.4418
aF71.5
aF12.0
aa(lp1828
F1.9023555346385543
aF183.30590584211845
ag1827
aF0.0006
aF1.1925
aF1.4418
aF656.5
aF12.0
aa(lp1829
F0.0
aF190.93503166415664
aS'A4c'
p1830
aF0.0006
aF1.1925
aF1.4418
aF1196.5
aF12.0
aa(lp1831
F0.0
aF229.30633906481876
ag1811
aF0.5
aF1.1925
aF1.4418
aF71.5
aF0.46199999999999997
aa(lp1832
F0.0
aF222.14008215401188
ag1811
aF0.5
aF1.1925
aF1.4418
aF656.5
aF0.46199999999999997
aa(lp1833
F0.0
aF235.16524876701698
ag1814
aF0.5
aF1.1925
aF1.4418
aF1196.5
aF0.46199999999999997
aa(lp1834
F0.0
aF221.0367364059237
ag1811
aF0.5
aF1.1925
aF1.4418
aF71.5
aF1.6110000000000002
aa(lp1835
F0.0
aF212.0935555794052
ag1811
aF0.5
aF1.1925
aF1.4418
aF656.5
aF1.6110000000000002
aa(lp1836
F0.0
aF221.91324495699436
ag1814
aF0.5
aF1.1925
aF1.4418
aF1196.5
aF1.6110000000000002
aa(lp1837
F0.0
aF212.44120163019386
ag1819
aF0.5
aF1.1925
aF1.4418
aF71.5
aF3.12
aa(lp1838
F0.0
aF203.23284201559636
ag1819
aF0.5
aF1.1925
aF1.4418
aF656.5
aF3.12
aa(lp1839
F0.0
aF211.5717612372886
ag1822
aF0.5
aF1.1925
aF1.4418
aF1196.5
aF3.12
aa(lp1840
F0.0
aF197.06122951764291
ag1819
aF0.5
aF1.1925
aF1.4418
aF71.5
aF6.09
aa(lp1841
F0.0
aF188.73517475916054
ag1819
aF0.5
aF1.1925
aF1.4418
aF656.5
aF6.09
aa(lp1842
F0.0
aF196.01230957211476
ag1822
aF0.5
aF1.1925
aF1.4418
aF1196.5
aF6.09
aa(lp1843
F19.77784315595716
aF177.66908547244532
ag1827
aF0.5
aF1.1925
aF1.4418
aF71.5
aF12.0
aa(lp1844
F4.0683547021418995
aF171.5042259510263
ag1827
aF0.5
aF1.1925
aF1.4418
aF656.5
aF12.0
aa(lp1845
F0.0
aF178.61349337907183
ag1830
aF0.5
aF1.1925
aF1.4418
aF1196.5
aF12.0
aa(lp1846
F0.0
aF219.50132739761298
aS'A4c'
p1847
aF0.75
aF1.1925
aF1.4418
aF71.5
aF0.46199999999999997
aa(lp1848
F0.0
aF209.7420588134618
ag1847
aF0.75
aF1.1925
aF1.4418
aF656.5
aF0.46199999999999997
aa(lp1849
F0.0
aF219.20941351150088
aS'A4c'
p1850
aF0.75
aF1.1925
aF1.4418
aF1196.5
aF0.46199999999999997
aa(lp1851
F0.0
aF212.28954415993613
ag1847
aF0.75
aF1.1925
aF1.4418
aF71.5
aF1.6110000000000002
aa(lp1852
F0.0
aF202.1921589321213
ag1847
aF0.75
aF1.1925
aF1.4418
aF656.5
aF1.6110000000000002
aa(lp1853
F0.0
aF210.29800743820428
ag1850
aF0.75
aF1.1925
aF1.4418
aF1196.5
aF1.6110000000000002
aa(lp1854
F0.28923809791452554
aF204.543259391808
aS'A4c'
p1855
aF0.75
aF1.1925
aF1.4418
aF71.5
aF3.12
aa(lp1856
F0.05949704254453579
aF194.8189488798604
ag1855
aF0.75
aF1.1925
aF1.4418
aF656.5
aF3.12
aa(lp1857
F0.0
aF202.28418105265786
aS'A4c'
p1858
aF0.75
aF1.1925
aF1.4418
aF1196.5
aF3.12
aa(lp1859
F1.0548683571000343
aF190.46818393735015
ag1855
aF0.75
aF1.1925
aF1.4418
aF71.5
aF6.09
aa(lp1860
F0.2169892139859541
aF182.03287816268414
ag1855
aF0.75
aF1.1925
aF1.4418
aF656.5
aF6.09
aa(lp1861
F0.0
aF189.01623672776066
ag1858
aF0.75
aF1.1925
aF1.4418
aF1196.5
aF6.09
aa(lp1862
F24.189938467261904
aF172.56283839285715
aS'A4c'
p1863
aF0.75
aF1.1925
aF1.4418
aF71.5
aF12.0
aa(lp1864
F5.215074627976189
aF166.29184732142858
ag1863
aF0.75
aF1.1925
aF1.4418
aF656.5
aF12.0
aa(lp1865
F0.19276934523809525
aF173.15545441468254
aS'A4c'
p1866
aF0.75
aF1.1925
aF1.4418
aF1196.5
aF12.0
aa(lp1867
F0.0
aF211.254901041288
ag1847
aF1.0
aF1.1925
aF1.4418
aF71.5
aF0.46199999999999997
aa(lp1868
F0.0
aF200.91167946277113
ag1847
aF1.0
aF1.1925
aF1.4418
aF656.5
aF0.46199999999999997
aa(lp1869
F0.0
aF209.29596707746003
ag1850
aF1.0
aF1.1925
aF1.4418
aF1196.5
aF0.46199999999999997
aa(lp1870
F0.0
aF204.65225301746332
ag1847
aF1.0
aF1.1925
aF1.4418
aF71.5
aF1.6110000000000002
aa(lp1871
F0.0
aF194.26519823056768
ag1847
aF1.0
aF1.1925
aF1.4418
aF656.5
aF1.6110000000000002
aa(lp1872
F0.0
aF201.6949366609112
ag1850
aF1.0
aF1.1925
aF1.4418
aF1196.5
aF1.6110000000000002
aa(lp1873
F0.7713015944387347
aF197.50949937036086
ag1855
aF1.0
aF1.1925
aF1.4418
aF71.5
aF3.12
aa(lp1874
F0.1586587801187621
aF187.63816609269728
ag1855
aF1.0
aF1.1925
aF1.4418
aF656.5
aF3.12
aa(lp1875
F0.0
aF194.64116377897682
ag1858
aF1.0
aF1.1925
aF1.4418
aF1196.5
aF3.12
aa(lp1876
F2.812982285600091
aF184.4889207603917
ag1855
aF1.0
aF1.1925
aF1.4418
aF71.5
aF6.09
aa(lp1877
F0.5786379039625442
aF176.02181294521526
ag1855
aF1.0
aF1.1925
aF1.4418
aF656.5
aF6.09
aa(lp1878
F0.0
aF182.7462483969967
ag1858
aF1.0
aF1.1925
aF1.4418
aF1196.5
aF6.09
aa(lp1879
F28.029294246031746
aF167.88477043650792
ag1863
aF1.0
aF1.1925
aF1.4418
aF71.5
aF12.0
aa(lp1880
F6.403407341269841
aF161.54316924603174
ag1863
aF1.0
aF1.1925
aF1.4418
aF656.5
aF12.0
aa(lp1881
F0.5140515873015873
aF168.17083677248675
ag1866
aF1.0
aF1.1925
aF1.4418
aF1196.5
aF12.0
aa(lp1882
F0.0
aF203.00847468496303
ag1847
aF1.25
aF1.1925
aF1.4418
aF71.5
aF0.46199999999999997
aa(lp1883
F0.0
aF192.08130011208047
ag1847
aF1.25
aF1.1925
aF1.4418
aF656.5
aF0.46199999999999997
aa(lp1884
F0.0
aF199.3825206434192
ag1850
aF1.25
aF1.1925
aF1.4418
aF1196.5
aF0.46199999999999997
aa(lp1885
F0.0
aF197.01496187499052
ag1847
aF1.25
aF1.1925
aF1.4418
aF71.5
aF1.6110000000000002
aa(lp1886
F0.0
aF186.33823752901407
ag1847
aF1.25
aF1.1925
aF1.4418
aF656.5
aF1.6110000000000002
aa(lp1887
F0.0
aF193.09186588361808
ag1850
aF1.25
aF1.1925
aF1.4418
aF1196.5
aF1.6110000000000002
aa(lp1888
F1.253365090962944
aF190.47573934891372
ag1855
aF1.25
aF1.1925
aF1.4418
aF71.5
aF3.12
aa(lp1889
F0.2578205176929884
aF180.45738330553414
ag1855
aF1.25
aF1.1925
aF1.4418
aF656.5
aF3.12
aa(lp1890
F0.0
aF186.99814650529578
ag1858
aF1.25
aF1.1925
aF1.4418
aF1196.5
aF3.12
aa(lp1891
F4.571096214100148
aF178.50965758343327
ag1855
aF1.25
aF1.1925
aF1.4418
aF71.5
aF6.09
aa(lp1892
F0.9402865939391343
aF170.01074772774638
ag1855
aF1.25
aF1.1925
aF1.4418
aF656.5
aF6.09
aa(lp1893
F0.0
aF176.47626006623273
ag1858
aF1.25
aF1.1925
aF1.4418
aF1196.5
aF6.09
aa(lp1894
F31.86865002480159
aF163.20670248015873
ag1863
aF1.25
aF1.1925
aF1.4418
aF71.5
aF12.0
aa(lp1895
F7.591740054563493
aF156.79449117063493
ag1863
aF1.25
aF1.1925
aF1.4418
aF656.5
aF12.0
aa(lp1896
F0.8353338293650794
aF163.186219130291
ag1866
aF1.25
aF1.1925
aF1.4418
aF1196.5
aF12.0
aa(lp1897
F-0.053360851357082344
aF195.27655128352947
aS'A4c'
p1898
aF1.5
aF1.1925
aF1.4418
aF71.5
aF0.46199999999999997
aa(lp1899
F-0.010976468405428347
aF183.93159026651293
ag1898
aF1.5
aF1.1925
aF1.4418
aF656.5
aF0.46199999999999997
aa(lp1900
F0.0
aF190.32840544268623
aS'A4c'
p1901
aF1.5
aF1.1925
aF1.4418
aF1196.5
aF0.46199999999999997
aa(lp1902
F0.05006630486641227
aF189.83257860657204
ag1898
aF1.5
aF1.1925
aF1.4418
aF71.5
aF1.6110000000000002
aa(lp1903
F0.01029877146946566
aF178.96877542491652
ag1898
aF1.5
aF1.1925
aF1.4418
aF656.5
aF1.6110000000000002
aa(lp1904
F0.0
aF185.14225842544
ag1901
aF1.5
aF1.1925
aF1.4418
aF1196.5
aF1.6110000000000002
aa(lp1905
F1.8960240598770983
aF183.84580544514387
aS'A4c'
p1906
aF1.5
aF1.1925
aF1.4418
aF71.5
aF3.12
aa(lp1907
F0.3900171691396882
aF173.7479601663669
ag1906
aF1.5
aF1.1925
aF1.4418
aF656.5
aF3.12
aa(lp1908
F0.0
aF179.8790890281525
aS'A4c'
p1909
aF1.5
aF1.1925
aF1.4418
aF1196.5
aF3.12
aa(lp1910
F6.6901704683753
aF172.85213718412768
ag1906
aF1.5
aF1.1925
aF1.4418
aF71.5
aF6.09
aa(lp1911
F1.3761857786270981
aF164.3528425460881
ag1906
aF1.5
aF1.1925
aF1.4418
aF656.5
aF6.09
aa(lp1912
F0.0
aF170.57097335818844
ag1909
aF1.5
aF1.1925
aF1.4418
aF1196.5
aF6.09
aa(lp1913
F35.740339973958335
aF158.76257929687497
aS'A4c'
p1914
aF1.5
aF1.1925
aF1.4418
aF71.5
aF12.0
aa(lp1915
F9.011070442708336
aF152.298176953125
ag1914
aF1.5
aF1.1925
aF1.4418
aF656.5
aF12.0
aa(lp1916
F1.3374602430555558
aF158.46209496527777
aS'A4c'
p1917
aF1.5
aF1.1925
aF1.4418
aF1196.5
aF12.0
aa(lp1918
F-0.720371493320611
aF176.96855915069708
ag1898
aF2.25
aF1.1925
aF1.4418
aF71.5
aF0.46199999999999997
aa(lp1919
F-0.14818232347328256
aF165.94882102848018
ag1898
aF2.25
aF1.1925
aF1.4418
aF656.5
aF0.46199999999999997
aa(lp1920
F0.0
aF171.32970655691176
ag1901
aF2.25
aF1.1925
aF1.4418
aF1196.5
aF0.46199999999999997
aa(lp1921
F0.675895115696565
aF172.60705360483263
ag1898
aF2.25
aF1.1925
aF1.4418
aF71.5
aF1.6110000000000002
aa(lp1922
F0.1390334148377863
aF162.15662578845618
ag1898
aF2.25
aF1.1925
aF1.4418
aF656.5
aF1.6110000000000002
aa(lp1923
F0.0
aF167.50133758249842
ag1901
aF2.25
aF1.1925
aF1.4418
aF1196.5
aF1.6110000000000002
aa(lp1924
F5.349657954324039
aF167.7923518517686
ag1906
aF2.25
aF1.1925
aF1.4418
aF71.5
aF3.12
aa(lp1925
F1.1004388052682854
aF158.09760740482614
ag1906
aF2.25
aF1.1925
aF1.4418
aF656.5
aF3.12
aa(lp1926
F0.0
aF163.49953466383144
ag1909
aF2.25
aF1.1925
aF1.4418
aF1196.5
aF3.12
aa(lp1927
F16.476516326064147
aF158.93613237391335
ag1906
aF2.25
aF1.1925
aF1.4418
aF71.5
aF6.09
aa(lp1928
F3.3892630324490405
aF150.73414734131447
ag1906
aF2.25
aF1.1925
aF1.4418
aF656.5
aF6.09
aa(lp1929
F0.0
aF156.3197786498926
ag1909
aF2.25
aF1.1925
aF1.4418
aF1196.5
aF6.09
aa(lp1930
F47.66258444010417
aF147.65268509114583
ag1914
aF2.25
aF1.1925
aF1.4418
aF71.5
aF12.0
aa(lp1931
F15.463539518229165
aF141.20669095052082
ag1914
aF2.25
aF1.1925
aF1.4418
aF656.5
aF12.0
aa(lp1932
F4.561859114583334
aF146.76441050347222
ag1917
aF2.25
aF1.1925
aF1.4418
aF1196.5
aF12.0
aa(lp1933
F2.7148157447165686
aF158.08434143297634
aS'A4c'
p1934
aF3.45
aF1.1925
aF1.4418
aF71.5
aF0.46199999999999997
aa(lp1935
F2.2523462923204702
aF147.8256769795201
ag1934
aF3.45
aF1.1925
aF1.4418
aF656.5
aF0.46199999999999997
aa(lp1936
F1.8871001057275474
aF152.3942758363962
aS'A4c'
p1937
aF3.45
aF1.1925
aF1.4418
aF1196.5
aF0.46199999999999997
aa(lp1938
F7.427231359169584
aF154.7048641368811
ag1934
aF3.45
aF1.1925
aF1.4418
aF71.5
aF1.6110000000000002
aa(lp1939
F3.443405793608196
aF145.00068387785598
ag1934
aF3.45
aF1.1925
aF1.4418
aF656.5
aF1.6110000000000002
aa(lp1940
F2.1492197208748594
aF149.6104845658397
ag1937
aF3.45
aF1.1925
aF1.4418
aF1196.5
aF1.6110000000000002
aa(lp1941
F14.669703645958233
aF150.9754594794165
aS'A4c'
p1942
aF3.45
aF1.1925
aF1.4418
aF71.5
aF3.12
aa(lp1943
F5.505435236935451
aF141.94010213529177
ag1942
aF3.45
aF1.1925
aF1.4418
aF656.5
aF3.12
aa(lp1944
F2.725945668548495
aF146.64301900779375
aS'A4c'
p1945
aF3.45
aF1.1925
aF1.4418
aF1196.5
aF3.12
aa(lp1946
F29.639514308053556
aF144.11654017860712
ag1942
aF3.45
aF1.1925
aF1.4418
aF71.5
aF6.09
aa(lp1947
F9.901837794264589
aF136.35723600444643
ag1942
aF3.45
aF1.1925
aF1.4418
aF656.5
aF6.09
aa(lp1948
F4.018875685784707
aF141.26990265587528
ag1945
aF3.45
aF1.1925
aF1.4418
aF1196.5
aF6.09
aa(lp1949
F63.567579600694444
aF135.49609930555556
aS'A4c'
p1950
aF3.45
aF1.1925
aF1.4418
aF71.5
aF12.0
aa(lp1951
F27.01703012152777
aF129.10632847222223
ag1950
aF3.45
aF1.1925
aF1.4418
aF656.5
aF12.0
aa(lp1952
F13.263156365740741
aF134.03129577546298
aS'A4c'
p1953
aF3.45
aF1.1925
aF1.4418
aF1196.5
aF12.0
aa(lp1954
F82.23731794953352
aF77.69350424618322
ag1934
aF13.8
aF1.1925
aF1.4418
aF71.5
aF0.46199999999999997
aa(lp1955
F57.570070175996605
aF71.16263544847327
ag1934
aF13.8
aF1.1925
aF1.4418
aF656.5
aF0.46199999999999997
aa(lp1956
F45.29040253746112
aF73.1649146133729
ag1937
aF13.8
aF1.1925
aF1.4418
aF1196.5
aF0.46199999999999997
aa(lp1957
F89.49192857029263
aF77.4554616451972
ag1934
aF13.8
aF1.1925
aF1.4418
aF71.5
aF1.6110000000000002
aa(lp1958
F64.38323796914757
aF71.02851997057888
ag1934
aF13.8
aF1.1925
aF1.4418
aF656.5
aF1.6110000000000002
aa(lp1959
F51.581273300996614
aF73.04938758216709
ag1937
aF13.8
aF1.1925
aF1.4418
aF1196.5
aF1.6110000000000002
aa(lp1960
F99.07844107913671
aF77.26012794664268
ag1942
aF13.8
aF1.1925
aF1.4418
aF71.5
aF3.12
aa(lp1961
F73.57577992805754
aF70.96350663369304
ag1942
aF13.8
aF1.1925
aF1.4418
aF656.5
aF3.12
aa(lp1962
F60.172579488409276
aF73.00718931454837
ag1945
aF13.8
aF1.1925
aF1.4418
aF1196.5
aF3.12
aa(lp1963
F117.98652408273382
aF76.95529934952039
ag1942
aF13.8
aF1.1925
aF1.4418
aF71.5
aF6.09
aa(lp1964
F91.83457606115107
aF70.91098559052757
ag1942
aF13.8
aF1.1925
aF1.4418
aF656.5
aF6.09
aa(lp1965
F77.30553254596323
aF72.99848823541168
ag1945
aF13.8
aF1.1925
aF1.4418
aF1196.5
aF6.09
aa(lp1966
F156.22859999999997
aF77.28284375
ag1950
aF13.8
aF1.1925
aF1.4418
aF71.5
aF12.0
aa(lp1967
F131.0346
aF71.61565625
ag1950
aF13.8
aF1.1925
aF1.4418
aF656.5
aF12.0
aa(lp1968
F115.31621944444444
aF73.71788333333333
ag1953
aF13.8
aF1.1925
aF1.4418
aF1196.5
aF12.0
aa.