(lp0
(lp1
F0.0
aF26.143
aS'A4c'
p2
aF0.006
aF0.0
aF0.0
aF71.5
aF0.2769
aa(lp3
F0.0
aF12.43
aS'A4c'
p4
aF0.006
aF0.0
aF0.0
aF71.5
aF1.3841999999999999
aa(lp5
F0.0
aF8.98
aS'A4c'
p6
aF0.006
aF0.0
aF0.0
aF71.5
aF2.7600000000000002
aa(lp7
F4.395
aF6.156
aS'A4c'
p8
aF0.006
aF0.0
aF0.0
aF71.5
aF5.5371
aa(lp9
F23.944
aF7.68
aS'A4c'
p10
aF0.006
aF0.0
aF0.0
aF71.5
aF11.0739
aa(lp11
F0.0
aF73.012
aS'A4c'
p12
aF0.006
aF0.0497
aF0.0601
aF71.5
aF0.2769
aa(lp13
F0.0
aF64.399
aS'A4c'
p14
aF0.006
aF0.0497
aF0.0601
aF71.5
aF1.3841999999999999
aa(lp15
F0.0
aF54.157
aS'A4c'
p16
aF0.006
aF0.0497
aF0.0601
aF71.5
aF2.7600000000000002
aa(lp17
F0.0
aF38.572
aS'A4c'
p18
aF0.006
aF0.0497
aF0.0601
aF71.5
aF5.5371
aa(lp19
F10.759
aF27.064
aS'A4c'
p20
aF0.006
aF0.0497
aF0.0601
aF71.5
aF11.0739
aa(lp21
F0.0
aF120.203
aS'A4c'
p22
aF0.006
aF0.0994
aF0.1202
aF71.5
aF0.2769
aa(lp23
F0.0
aF111.589
aS'A4c'
p24
aF0.006
aF0.0994
aF0.1202
aF71.5
aF1.3841999999999999
aa(lp25
F0.0
aF101.096
aS'A4c'
p26
aF0.006
aF0.0994
aF0.1202
aF71.5
aF2.7600000000000002
aa(lp27
F0.0
aF84.941
aS'A4c'
p28
aF0.006
aF0.0994
aF0.1202
aF71.5
aF5.5371
aa(lp29
F6.762
aF69.73
aS'A4c'
p30
aF0.006
aF0.0994
aF0.1202
aF71.5
aF11.0739
aa(lp31
F0.0
aF167.393
aS'A4c'
p32
aF0.006
aF0.1491
aF0.1802
aF71.5
aF0.2769
aa(lp33
F0.0
aF158.779
aS'A4c'
p34
aF0.006
aF0.1491
aF0.1802
aF71.5
aF1.3841999999999999
aa(lp35
F0.0
aF148.199
aS'A4c'
p36
aF0.006
aF0.1491
aF0.1802
aF71.5
aF2.7600000000000002
aa(lp37
F0.0
aF130.491
aS'A4c'
p38
aF0.006
aF0.1491
aF0.1802
aF71.5
aF5.5371
aa(lp39
F5.281
aF110.653
aS'A4c'
p40
aF0.006
aF0.1491
aF0.1802
aF71.5
aF11.0739
aa(lp41
F0.0
aF214.584
aS'A4c'
p42
aF0.006
aF0.1988
aF0.2403
aF71.5
aF0.2769
aa(lp43
F0.0
aF205.97
aS'A4c'
p44
aF0.006
aF0.1988
aF0.2403
aF71.5
aF1.3841999999999999
aa(lp45
F0.0
aF195.343
aS'A4c'
p46
aF0.006
aF0.1988
aF0.2403
aF71.5
aF2.7600000000000002
aa(lp47
F0.0
aF176.735
aS'A4c'
p48
aF0.006
aF0.1988
aF0.2403
aF71.5
aF5.5371
aa(lp49
F3.186
aF153.581
aS'A4c'
p50
aF0.006
aF0.1988
aF0.2403
aF71.5
aF11.0739
aa(lp51
F0.0
aF308.962
aS'A4c'
p52
aF0.006
aF0.2981
aF0.3605
aF71.5
aF0.2769
aa(lp53
F0.0
aF300.348
aS'A4c'
p54
aF0.006
aF0.2981
aF0.3605
aF71.5
aF1.3841999999999999
aa(lp55
F0.0
aF289.672
aS'A4c'
p56
aF0.006
aF0.2981
aF0.3605
aF71.5
aF2.7600000000000002
aa(lp57
F0.0
aF270.104
aS'A4c'
p58
aF0.006
aF0.2981
aF0.3605
aF71.5
aF5.5371
aa(lp59
F1.274
aF242.483
aS'A4c'
p60
aF0.006
aF0.2981
aF0.3605
aF71.5
aF11.0739
aa(lp61
F0.0
aF387.649
aS'A4c'
p62
aF0.006
aF0.3975
aF0.4806
aF71.5
aF0.2769
aa(lp63
F0.0
aF379.035
aS'A4c'
p64
aF0.006
aF0.3975
aF0.4806
aF71.5
aF1.3841999999999999
aa(lp65
F0.0
aF368.337
aS'A4c'
p66
aF0.006
aF0.3975
aF0.4806
aF71.5
aF2.7600000000000002
aa(lp67
F0.0
aF348.328
aS'A4c'
p68
aF0.006
aF0.3975
aF0.4806
aF71.5
aF5.5371
aa(lp69
F0.0
aF318.132
aS'A4c'
p70
aF0.006
aF0.3975
aF0.4806
aF71.5
aF11.0739
aa(lp71
F0.0
aF4.785
aS'A4c'
p72
aF0.5
aF0.0
aF0.0
aF71.5
aF0.2769
aa(lp73
F4.006
aF5.056
aS'A4c'
p74
aF0.5
aF0.0
aF0.0
aF71.5
aF1.3841999999999999
aa(lp75
F8.124
aF5.403
aS'A4c'
p76
aF0.5
aF0.0
aF0.0
aF71.5
aF2.7600000000000002
aa(lp77
F18.861
aF6.151
aS'A4c'
p78
aF0.5
aF0.0
aF0.0
aF71.5
aF5.5371
aa(lp79
F38.767
aF7.873
aS'A4c'
p80
aF0.5
aF0.0
aF0.0
aF71.5
aF11.0739
aa(lp81
F0.0
aF41.454
aS'A4c'
p82
aF0.5
aF0.0497
aF0.0601
aF71.5
aF0.2769
aa(lp83
F0.0
aF32.873
aS'A4c'
p84
aF0.5
aF0.0497
aF0.0601
aF71.5
aF1.3841999999999999
aa(lp85
F0.0
aF27.965
aS'A4c'
p86
aF0.5
aF0.0497
aF0.0601
aF71.5
aF2.7600000000000002
aa(lp87
F6.454
aF23.6
aS'A4c'
p88
aF0.5
aF0.0497
aF0.0601
aF71.5
aF5.5371
aa(lp89
F24.77
aF23.581
aS'A4c'
p90
aF0.5
aF0.0497
aF0.0601
aF71.5
aF11.0739
aa(lp91
F0.0
aF83.27
aS'A4c'
p92
aF0.5
aF0.0994
aF0.1202
aF71.5
aF0.2769
aa(lp93
F0.0
aF76.738
aS'A4c'
p94
aF0.5
aF0.0994
aF0.1202
aF71.5
aF1.3841999999999999
aa(lp95
F0.0
aF70.627
aS'A4c'
p96
aF0.5
aF0.0994
aF0.1202
aF71.5
aF2.7600000000000002
aa(lp97
F4.583
aF62.649
aS'A4c'
p98
aF0.5
aF0.0994
aF0.1202
aF71.5
aF5.5371
aa(lp99
F19.34
aF52.91
aS'A4c'
p100
aF0.5
aF0.0994
aF0.1202
aF71.5
aF11.0739
aa(lp101
F0.0
aF125.812
aS'A4c'
p102
aF0.5
aF0.1491
aF0.1802
aF71.5
aF0.2769
aa(lp103
F0.0
aF118.744
aS'A4c'
p104
aF0.5
aF0.1491
aF0.1802
aF71.5
aF1.3841999999999999
aa(lp105
F0.0
aF111.511
aS'A4c'
p106
aF0.5
aF0.1491
aF0.1802
aF71.5
aF2.7600000000000002
aa(lp107
F1.526
aF101.309
aS'A4c'
p108
aF0.5
aF0.1491
aF0.1802
aF71.5
aF5.5371
aa(lp109
F15.174
aF89.173
aS'A4c'
p110
aF0.5
aF0.1491
aF0.1802
aF71.5
aF11.0739
aa(lp111
F0.0
aF168.535
aS'A4c'
p112
aF0.5
aF0.1988
aF0.2403
aF71.5
aF0.2769
aa(lp113
F0.0
aF161.154
aS'A4c'
p114
aF0.5
aF0.1988
aF0.2403
aF71.5
aF1.3841999999999999
aa(lp115
F0.0
aF153.316
aS'A4c'
p116
aF0.5
aF0.1988
aF0.2403
aF71.5
aF2.7600000000000002
aa(lp117
F1.275
aF141.579
aS'A4c'
p118
aF0.5
aF0.1988
aF0.2403
aF71.5
aF5.5371
aa(lp119
F13.309
aF126.449
aS'A4c'
p120
aF0.5
aF0.1988
aF0.2403
aF71.5
aF11.0739
aa(lp121
F0.0
aF254.105
aS'A4c'
p122
aF0.5
aF0.2981
aF0.3605
aF71.5
aF0.2769
aa(lp123
F0.0
aF246.464
aS'A4c'
p124
aF0.5
aF0.2981
aF0.3605
aF71.5
aF1.3841999999999999
aa(lp125
F0.0
aF237.819
aS'A4c'
p126
aF0.5
aF0.2981
aF0.3605
aF71.5
aF2.7600000000000002
aa(lp127
F0.0
aF224.09
aS'A4c'
p128
aF0.5
aF0.2981
aF0.3605
aF71.5
aF5.5371
aa(lp129
F9.797
aF204.835
aS'A4c'
p130
aF0.5
aF0.2981
aF0.3605
aF71.5
aF11.0739
aa(lp131
F0.0
aF327.858
aS'A4c'
p132
aF0.5
aF0.3975
aF0.4806
aF71.5
aF0.2769
aa(lp133
F0.0
aF320.08
aS'A4c'
p134
aF0.5
aF0.3975
aF0.4806
aF71.5
aF1.3841999999999999
aa(lp135
F0.0
aF311.088
aS'A4c'
p136
aF0.5
aF0.3975
aF0.4806
aF71.5
aF2.7600000000000002
aa(lp137
F0.0
aF296.113
aS'A4c'
p138
aF0.5
aF0.3975
aF0.4806
aF71.5
aF5.5371
aa(lp139
F7.465
aF274.296
aS'A4c'
p140
aF0.5
aF0.3975
aF0.4806
aF71.5
aF11.0739
aa(lp141
F6.286
aF4.754
aS'A4c'
p142
aF0.75
aF0.0
aF0.0
aF71.5
aF0.2769
aa(lp143
F8.742
aF5.034
aS'A4c'
p144
aF0.75
aF0.0
aF0.0
aF71.5
aF1.3841999999999999
aa(lp145
F15.207
aF5.401
aS'A4c'
p146
aF0.75
aF0.0
aF0.0
aF71.5
aF2.7600000000000002
aa(lp147
F24.375
aF6.195
aS'A4c'
p148
aF0.75
aF0.0
aF0.0
aF71.5
aF5.5371
aa(lp149
F44.723
aF7.986
aS'A4c'
p150
aF0.75
aF0.0
aF0.0
aF71.5
aF11.0739
aa(lp151
F0.0
aF27.333
aS'A4c'
p152
aF0.75
aF0.0497
aF0.0601
aF71.5
aF0.2769
aa(lp153
F1.223
aF24.569
aS'A4c'
p154
aF0.75
aF0.0497
aF0.0601
aF71.5
aF1.3841999999999999
aa(lp155
F5.015
aF22.342
aS'A4c'
p156
aF0.75
aF0.0497
aF0.0601
aF71.5
aF2.7600000000000002
aa(lp157
F12.859
aF21.883
aS'A4c'
p158
aF0.75
aF0.0497
aF0.0601
aF71.5
aF5.5371
aa(lp159
F30.363
aF21.039
aS'A4c'
p160
aF0.75
aF0.0497
aF0.0601
aF71.5
aF11.0739
aa(lp161
F0.0
aF70.78
aS'A4c'
p162
aF0.75
aF0.0994
aF0.1202
aF71.5
aF0.2769
aa(lp163
F0.0
aF66.173
aS'A4c'
p164
aF0.75
aF0.0994
aF0.1202
aF71.5
aF1.3841999999999999
aa(lp165
F1.473
aF61.778
aS'A4c'
p166
aF0.75
aF0.0994
aF0.1202
aF71.5
aF2.7600000000000002
aa(lp167
F8.769
aF55.637
aS'A4c'
p168
aF0.75
aF0.0994
aF0.1202
aF71.5
aF5.5371
aa(lp169
F24.516
aF44.441
aS'A4c'
p170
aF0.75
aF0.0994
aF0.1202
aF71.5
aF11.0739
aa(lp171
F0.0
aF110.612
aS'A4c'
p172
aF0.75
aF0.1491
aF0.1802
aF71.5
aF0.2769
aa(lp173
F0.0
aF105.148
aS'A4c'
p174
aF0.75
aF0.1491
aF0.1802
aF71.5
aF1.3841999999999999
aa(lp175
F0.0
aF99.674
aS'A4c'
p176
aF0.75
aF0.1491
aF0.1802
aF71.5
aF2.7600000000000002
aa(lp177
F6.241
aF91.48
aS'A4c'
p178
aF0.75
aF0.1491
aF0.1802
aF71.5
aF5.5371
aa(lp179
F21.242
aF81.218
aS'A4c'
p180
aF0.75
aF0.1491
aF0.1802
aF71.5
aF11.0739
aa(lp181
F0.0
aF150.971
aS'A4c'
p182
aF0.75
aF0.1988
aF0.2403
aF71.5
aF0.2769
aa(lp183
F0.0
aF145.044
aS'A4c'
p184
aF0.75
aF0.1988
aF0.2403
aF71.5
aF1.3841999999999999
aa(lp185
F0.0
aF138.823
aS'A4c'
p186
aF0.75
aF0.1988
aF0.2403
aF71.5
aF2.7600000000000002
aa(lp187
F5.484
aF129.15
aS'A4c'
p188
aF0.75
aF0.1988
aF0.2403
aF71.5
aF5.5371
aa(lp189
F18.995
aF116.05
aS'A4c'
p190
aF0.75
aF0.1988
aF0.2403
aF71.5
aF11.0739
aa(lp191
F0.0
aF232.33
aS'A4c'
p192
aF0.75
aF0.2981
aF0.3605
aF71.5
aF0.2769
aa(lp193
F0.0
aF225.772
aS'A4c'
p194
aF0.75
aF0.2981
aF0.3605
aF71.5
aF1.3841999999999999
aa(lp195
F0.0
aF218.678
aS'A4c'
p196
aF0.75
aF0.2981
aF0.3605
aF71.5
aF2.7600000000000002
aa(lp197
F3.323
aF207.06
aS'A4c'
p198
aF0.75
aF0.2981
aF0.3605
aF71.5
aF5.5371
aa(lp199
F16.016
aF189.855
aS'A4c'
p200
aF0.75
aF0.2981
aF0.3605
aF71.5
aF11.0739
aa(lp201
F0.0
aF303.764
aS'A4c'
p202
aF0.75
aF0.3975
aF0.4806
aF71.5
aF0.2769
aa(lp203
F0.0
aF296.92
aS'A4c'
p204
aF0.75
aF0.3975
aF0.4806
aF71.5
aF1.3841999999999999
aa(lp205
F0.0
aF289.25
aS'A4c'
p206
aF0.75
aF0.3975
aF0.4806
aF71.5
aF2.7600000000000002
aa(lp207
F2.889
aF276.414
aS'A4c'
p208
aF0.75
aF0.3975
aF0.4806
aF71.5
aF5.5371
aa(lp209
F13.133
aF256.689
aS'A4c'
p210
aF0.75
aF0.3975
aF0.4806
aF71.5
aF11.0739
aa(lp211
F10.977
aF4.737
aS'A4c'
p212
aF1.0
aF0.0
aF0.0
aF71.5
aF0.2769
aa(lp213
F15.558
aF5.032
aS'A4c'
p214
aF1.0
aF0.0
aF0.0
aF71.5
aF1.3841999999999999
aa(lp215
F20.065
aF5.419
aS'A4c'
p216
aF1.0
aF0.0
aF0.0
aF71.5
aF2.7600000000000002
aa(lp217
F29.284
aF6.254
aS'A4c'
p218
aF1.0
aF0.0
aF0.0
aF71.5
aF5.5371
aa(lp219
F50.028
aF8.104
aS'A4c'
p220
aF1.0
aF0.0
aF0.0
aF71.5
aF11.0739
aa(lp221
F2.865
aF21.321
aS'A4c'
p222
aF1.0
aF0.0497
aF0.0601
aF71.5
aF0.2769
aa(lp223
F5.515
aF20.956
aS'A4c'
p224
aF1.0
aF0.0497
aF0.0601
aF71.5
aF1.3841999999999999
aa(lp225
F9.252
aF20.652
aS'A4c'
p226
aF1.0
aF0.0497
aF0.0601
aF71.5
aF2.7600000000000002
aa(lp227
F18.754
aF20.524
aS'A4c'
p228
aF1.0
aF0.0497
aF0.0601
aF71.5
aF5.5371
aa(lp229
F36.605
aF20.262
aS'A4c'
p230
aF1.0
aF0.0497
aF0.0601
aF71.5
aF11.0739
aa(lp231
F1.208
aF62.064
aS'A4c'
p232
aF1.0
aF0.0994
aF0.1202
aF71.5
aF0.2769
aa(lp233
F3.041
aF58.538
aS'A4c'
p234
aF1.0
aF0.0994
aF0.1202
aF71.5
aF1.3841999999999999
aa(lp235
F6.002
aF55.045
aS'A4c'
p236
aF1.0
aF0.0994
aF0.1202
aF71.5
aF2.7600000000000002
aa(lp237
F14.735
aF48.64
aS'A4c'
p238
aF1.0
aF0.0994
aF0.1202
aF71.5
aF5.5371
aa(lp239
F29.275
aF40.194
aS'A4c'
p240
aF1.0
aF0.0994
aF0.1202
aF71.5
aF11.0739
aa(lp241
F0.0
aF99.199
aS'A4c'
p242
aF1.0
aF0.1491
aF0.1802
aF71.5
aF0.2769
aa(lp243
F1.439
aF94.836
aS'A4c'
p244
aF1.0
aF0.1491
aF0.1802
aF71.5
aF1.3841999999999999
aa(lp245
F5.142
aF90.288
aS'A4c'
p246
aF1.0
aF0.1491
aF0.1802
aF71.5
aF2.7600000000000002
aa(lp247
F11.68
aF83.346
aS'A4c'
p248
aF1.0
aF0.1491
aF0.1802
aF71.5
aF5.5371
aa(lp249
F25.789
aF74.529
aS'A4c'
p250
aF1.0
aF0.1491
aF0.1802
aF71.5
aF11.0739
aa(lp251
F0.0
aF137.318
aS'A4c'
p252
aF1.0
aF0.1988
aF0.2403
aF71.5
aF0.2769
aa(lp253
F1.279
aF132.394
aS'A4c'
p254
aF1.0
aF0.1988
aF0.2403
aF71.5
aF1.3841999999999999
aa(lp255
F4.604
aF127.141
aS'A4c'
p256
aF1.0
aF0.1988
aF0.2403
aF71.5
aF2.7600000000000002
aa(lp257
F9.353
aF118.666
aS'A4c'
p258
aF1.0
aF0.1988
aF0.2403
aF71.5
aF5.5371
aa(lp259
F23.411
aF107.127
aS'A4c'
p260
aF1.0
aF0.1988
aF0.2403
aF71.5
aF11.0739
aa(lp261
F0.0
aF214.529
aS'A4c'
p262
aF1.0
aF0.2981
aF0.3605
aF71.5
aF0.2769
aa(lp263
F0.0
aF208.979
aS'A4c'
p264
aF1.0
aF0.2981
aF0.3605
aF71.5
aF1.3841999999999999
aa(lp265
F2.867
aF202.804
aS'A4c'
p266
aF1.0
aF0.2981
aF0.3605
aF71.5
aF2.7600000000000002
aa(lp267
F8.033
aF192.364
aS'A4c'
p268
aF1.0
aF0.2981
aF0.3605
aF71.5
aF5.5371
aa(lp269
F20.226
aF176.722
aS'A4c'
p270
aF1.0
aF0.2981
aF0.3605
aF71.5
aF11.0739
aa(lp271
F0.0
aF283.716
aS'A4c'
p272
aF1.0
aF0.3975
aF0.4806
aF71.5
aF0.2769
aa(lp273
F0.0
aF277.738
aS'A4c'
p274
aF1.0
aF0.3975
aF0.4806
aF71.5
aF1.3841999999999999
aa(lp275
F1.375
aF271.004
aS'A4c'
p276
aF1.0
aF0.3975
aF0.4806
aF71.5
aF2.7600000000000002
aa(lp277
F6.164
aF259.395
aS'A4c'
p278
aF1.0
aF0.3975
aF0.4806
aF71.5
aF5.5371
aa(lp279
F18.31
aF241.183
aS'A4c'
p280
aF1.0
aF0.3975
aF0.4806
aF71.5
aF11.0739
aa(lp281
F16.324
aF4.735
aS'A4c'
p282
aF1.25
aF0.0
aF0.0
aF71.5
aF0.2769
aa(lp283
F19.874
aF5.046
aS'A4c'
p284
aF1.25
aF0.0
aF0.0
aF71.5
aF1.3841999999999999
aa(lp285
F24.449
aF5.452
aS'A4c'
p286
aF1.25
aF0.0
aF0.0
aF71.5
aF2.7600000000000002
aa(lp287
F35.114
aF6.324
aS'A4c'
p288
aF1.25
aF0.0
aF0.0
aF71.5
aF5.5371
aa(lp289
F54.793
aF8.219
aS'A4c'
p290
aF1.25
aF0.0
aF0.0
aF71.5
aF11.0739
aa(lp291
F7.513
aF19.645
aS'A4c'
p292
aF1.25
aF0.0497
aF0.0601
aF71.5
aF0.2769
aa(lp293
F9.502
aF19.408
aS'A4c'
p294
aF1.25
aF0.0497
aF0.0601
aF71.5
aF1.3841999999999999
aa(lp295
F15.268
aF19.28
aS'A4c'
p296
aF1.25
aF0.0497
aF0.0601
aF71.5
aF2.7600000000000002
aa(lp297
F23.05
aF18.134
aS'A4c'
p298
aF1.25
aF0.0497
aF0.0601
aF71.5
aF5.5371
aa(lp299
F41.421
aF19.595
aS'A4c'
p300
aF1.25
aF0.0497
aF0.0601
aF71.5
aF11.0739
aa(lp301
F4.947
aF55.186
aS'A4c'
p302
aF1.25
aF0.0994
aF0.1202
aF71.5
aF0.2769
aa(lp303
F7.606
aF52.302
aS'A4c'
p304
aF1.25
aF0.0994
aF0.1202
aF71.5
aF1.3841999999999999
aa(lp305
F11.09
aF49.422
aS'A4c'
p306
aF1.25
aF0.0994
aF0.1202
aF71.5
aF2.7600000000000002
aa(lp307
F18.66
aF38.79
aS'A4c'
p308
aF1.25
aF0.0994
aF0.1202
aF71.5
aF5.5371
aa(lp309
F33.512
aF36.625
aS'A4c'
p310
aF1.25
aF0.0994
aF0.1202
aF71.5
aF11.0739
aa(lp311
F4.361
aF89.861
aS'A4c'
p312
aF1.25
aF0.1491
aF0.1802
aF71.5
aF0.2769
aa(lp313
F5.535
aF86.137
aS'A4c'
p314
aF1.25
aF0.1491
aF0.1802
aF71.5
aF1.3841999999999999
aa(lp315
F8.665
aF82.228
aS'A4c'
p316
aF1.25
aF0.1491
aF0.1802
aF71.5
aF2.7600000000000002
aa(lp317
F16.409
aF76.22
aS'A4c'
p318
aF1.25
aF0.1491
aF0.1802
aF71.5
aF5.5371
aa(lp319
F29.841
aF68.626
aS'A4c'
p320
aF1.25
aF0.1491
aF0.1802
aF71.5
aF11.0739
aa(lp321
F2.878
aF125.868
aS'A4c'
p322
aF1.25
aF0.1988
aF0.2403
aF71.5
aF0.2769
aa(lp323
F5.074
aF121.551
aS'A4c'
p324
aF1.25
aF0.1988
aF0.2403
aF71.5
aF1.3841999999999999
aa(lp325
F7.882
aF116.901
aS'A4c'
p326
aF1.25
aF0.1988
aF0.2403
aF71.5
aF2.7600000000000002
aa(lp327
F14.921
aF109.421
aS'A4c'
p328
aF1.25
aF0.1988
aF0.2403
aF71.5
aF5.5371
aa(lp329
F27.326
aF99.125
aS'A4c'
p330
aF1.25
aF0.1988
aF0.2403
aF71.5
aF11.0739
aa(lp331
F2.569
aF199.288
aS'A4c'
p332
aF1.25
aF0.2981
aF0.3605
aF71.5
aF0.2769
aa(lp333
F4.53
aF194.28
aS'A4c'
p334
aF1.25
aF0.2981
aF0.3605
aF71.5
aF1.3841999999999999
aa(lp335
F5.817
aF188.648
aS'A4c'
p336
aF1.25
aF0.2981
aF0.3605
aF71.5
aF2.7600000000000002
aa(lp337
F11.878
aF179.118
aS'A4c'
p338
aF1.25
aF0.2981
aF0.3605
aF71.5
aF5.5371
aa(lp339
F23.921
aF164.749
aS'A4c'
p340
aF1.25
aF0.2981
aF0.3605
aF71.5
aF11.0739
aa(lp341
F1.269
aF266.3
aS'A4c'
p342
aF1.25
aF0.3975
aF0.4806
aF71.5
aF0.2769
aa(lp343
F4.205
aF260.854
aS'A4c'
p344
aF1.25
aF0.3975
aF0.4806
aF71.5
aF1.3841999999999999
aa(lp345
F5.381
aF254.666
aS'A4c'
p346
aF1.25
aF0.3975
aF0.4806
aF71.5
aF2.7600000000000002
aa(lp347
F10.889
aF243.925
aS'A4c'
p348
aF1.25
aF0.3975
aF0.4806
aF71.5
aF5.5371
aa(lp349
F21.868
aF226.973
aS'A4c'
p350
aF1.25
aF0.3975
aF0.4806
aF71.5
aF11.0739
aa(lp351
F20.187
aF4.749
aS'A4c'
p352
aF1.5
aF0.0
aF0.0
aF71.5
aF0.2769
aa(lp353
F23.824
aF5.074
aS'A4c'
p354
aF1.5
aF0.0
aF0.0
aF71.5
aF1.3841999999999999
aa(lp355
F29.63
aF5.5
aS'A4c'
p356
aF1.5
aF0.0
aF0.0
aF71.5
aF2.7600000000000002
aa(lp357
F39.412
aF6.401
aS'A4c'
p358
aF1.5
aF0.0
aF0.0
aF71.5
aF5.5371
aa(lp359
F60.482
aF8.335
aS'A4c'
p360
aF1.5
aF0.0
aF0.0
aF71.5
aF11.0739
aa(lp361
F12.589
aF18.25
aS'A4c'
p362
aF1.5
aF0.0497
aF0.0601
aF71.5
aF0.2769
aa(lp363
F15.312
aF16.663
aS'A4c'
p364
aF1.5
aF0.0497
aF0.0601
aF71.5
aF1.3841999999999999
aa(lp365
F18.995
aF16.851
aS'A4c'
p366
aF1.5
aF0.0497
aF0.0601
aF71.5
aF2.7600000000000002
aa(lp367
F26.949
aF17.408
aS'A4c'
p368
aF1.5
aF0.0497
aF0.0601
aF71.5
aF5.5371
aa(lp369
F45.837
aF19.032
aS'A4c'
p370
aF1.5
aF0.0497
aF0.0601
aF71.5
aF11.0739
aa(lp371
F8.274
aF49.573
aS'A4c'
p372
aF1.5
aF0.0994
aF0.1202
aF71.5
aF0.2769
aa(lp373
F12.51
aF47.175
aS'A4c'
p374
aF1.5
aF0.0994
aF0.1202
aF71.5
aF1.3841999999999999
aa(lp375
F15.544
aF42.074
aS'A4c'
p376
aF1.5
aF0.0994
aF0.1202
aF71.5
aF2.7600000000000002
aa(lp377
F22.265
aF36.308
aS'A4c'
p378
aF1.5
aF0.0994
aF0.1202
aF71.5
aF5.5371
aa(lp379
F38.853
aF34.862
aS'A4c'
p380
aF1.5
aF0.0994
aF0.1202
aF71.5
aF11.0739
aa(lp381
F7.396
aF81.954
aS'A4c'
p382
aF1.5
aF0.1491
aF0.1802
aF71.5
aF0.2769
aa(lp383
F8.928
aF78.724
aS'A4c'
p384
aF1.5
aF0.1491
aF0.1802
aF71.5
aF1.3841999999999999
aa(lp385
F13.813
aF75.347
aS'A4c'
p386
aF1.5
aF0.1491
aF0.1802
aF71.5
aF2.7600000000000002
aa(lp387
F19.793
aF70.073
aS'A4c'
p388
aF1.5
aF0.1491
aF0.1802
aF71.5
aF5.5371
aa(lp389
F34.798
aF63.534
aS'A4c'
p390
aF1.5
aF0.1491
aF0.1802
aF71.5
aF11.0739
aa(lp391
F6.89
aF115.94
aS'A4c'
p392
aF1.5
aF0.1988
aF0.2403
aF71.5
aF0.2769
aa(lp393
F8.254
aF112.14
aS'A4c'
p394
aF1.5
aF0.1988
aF0.2403
aF71.5
aF1.3841999999999999
aa(lp395
F12.735
aF107.981
aS'A4c'
p396
aF1.5
aF0.1988
aF0.2403
aF71.5
aF2.7600000000000002
aa(lp397
F18.2
aF101.322
aS'A4c'
p398
aF1.5
aF0.1988
aF0.2403
aF71.5
aF5.5371
aa(lp399
F30.885
aF92.069
aS'A4c'
p400
aF1.5
aF0.1988
aF0.2403
aF71.5
aF11.0739
aa(lp401
F5.166
aF185.82
aS'A4c'
p402
aF1.5
aF0.2981
aF0.3605
aF71.5
aF0.2769
aa(lp403
F7.463
aF181.211
aS'A4c'
p404
aF1.5
aF0.2981
aF0.3605
aF71.5
aF1.3841999999999999
aa(lp405
F9.099
aF176.091
aS'A4c'
p406
aF1.5
aF0.2981
aF0.3605
aF71.5
aF2.7600000000000002
aa(lp407
F16.156
aF167.342
aS'A4c'
p408
aF1.5
aF0.2981
aF0.3605
aF71.5
aF5.5371
aa(lp409
F27.305
aF154.073
aS'A4c'
p410
aF1.5
aF0.2981
aF0.3605
aF71.5
aF11.0739
aa(lp411
F4.886
aF250.833
aS'A4c'
p412
aF1.5
aF0.3975
aF0.4806
aF71.5
aF0.2769
aa(lp413
F7.016
aF245.813
aS'A4c'
p414
aF1.5
aF0.3975
aF0.4806
aF71.5
aF1.3841999999999999
aa(lp415
F8.486
aF240.06
aS'A4c'
p416
aF1.5
aF0.3975
aF0.4806
aF71.5
aF2.7600000000000002
aa(lp417
F14.936
aF230.03
aS'A4c'
p418
aF1.5
aF0.3975
aF0.4806
aF71.5
aF5.5371
aa(lp419
F25.099
aF214.159
aS'A4c'
p420
aF1.5
aF0.3975
aF0.4806
aF71.5
aF11.0739
aa(lp421
F31.603
aF4.864
aS'A4c'
p422
aF2.25
aF0.0
aF0.0
aF71.5
aF0.2769
aa(lp423
F35.503
aF5.227
aS'A4c'
p424
aF2.25
aF0.0
aF0.0
aF71.5
aF1.3841999999999999
aa(lp425
F40.405
aF5.694
aS'A4c'
p426
aF2.25
aF0.0
aF0.0
aF71.5
aF2.7600000000000002
aa(lp427
F51.493
aF6.661
aS'A4c'
p428
aF2.25
aF0.0
aF0.0
aF71.5
aF5.5371
aa(lp429
F71.876
aF8.677
aS'A4c'
p430
aF2.25
aF0.0
aF0.0
aF71.5
aF11.0739
aa(lp431
F21.54
aF14.387
aS'A4c'
p432
aF2.25
aF0.0497
aF0.0601
aF71.5
aF0.2769
aa(lp433
F24.625
aF14.622
aS'A4c'
p434
aF2.25
aF0.0497
aF0.0601
aF71.5
aF1.3841999999999999
aa(lp435
F29.874
aF14.967
aS'A4c'
p436
aF2.25
aF0.0497
aF0.0601
aF71.5
aF2.7600000000000002
aa(lp437
F38.63
aF15.788
aS'A4c'
p438
aF2.25
aF0.0497
aF0.0601
aF71.5
aF5.5371
aa(lp439
F58.623
aF17.756
aS'A4c'
p440
aF2.25
aF0.0497
aF0.0601
aF71.5
aF11.0739
aa(lp441
F18.215
aF31.693
aS'A4c'
p442
aF2.25
aF0.0994
aF0.1202
aF71.5
aF0.2769
aa(lp443
F20.758
aF29.909
aS'A4c'
p444
aF2.25
aF0.0994
aF0.1202
aF71.5
aF1.3841999999999999
aa(lp445
F24.161
aF29.786
aS'A4c'
p446
aF2.25
aF0.0994
aF0.1202
aF71.5
aF2.7600000000000002
aa(lp447
F32.876
aF28.439
aS'A4c'
p448
aF2.25
aF0.0994
aF0.1202
aF71.5
aF5.5371
aa(lp449
F50.831
aF29.532
aS'A4c'
p450
aF2.25
aF0.0994
aF0.1202
aF71.5
aF11.0739
aa(lp451
F16.583
aF63.755
aS'A4c'
p452
aF2.25
aF0.1491
aF0.1802
aF71.5
aF0.2769
aa(lp453
F18.826
aF61.548
aS'A4c'
p454
aF2.25
aF0.1491
aF0.1802
aF71.5
aF1.3841999999999999
aa(lp455
F21.825
aF59.188
aS'A4c'
p456
aF2.25
aF0.1491
aF0.1802
aF71.5
aF2.7600000000000002
aa(lp457
F29.616
aF54.218
aS'A4c'
p458
aF2.25
aF0.1491
aF0.1802
aF71.5
aF5.5371
aa(lp459
F44.929
aF46.155
aS'A4c'
p460
aF2.25
aF0.1491
aF0.1802
aF71.5
aF11.0739
aa(lp461
F15.581
aF92.333
aS'A4c'
p462
aF2.25
aF0.1988
aF0.2403
aF71.5
aF0.2769
aa(lp463
F17.615
aF89.558
aS'A4c'
p464
aF2.25
aF0.1988
aF0.2403
aF71.5
aF1.3841999999999999
aa(lp465
F20.343
aF86.51
aS'A4c'
p466
aF2.25
aF0.1988
aF0.2403
aF71.5
aF2.7600000000000002
aa(lp467
F26.347
aF81.521
aS'A4c'
p468
aF2.25
aF0.1988
aF0.2403
aF71.5
aF5.5371
aa(lp469
F41.767
aF74.829
aS'A4c'
p470
aF2.25
aF0.1988
aF0.2403
aF71.5
aF11.0739
aa(lp471
F14.402
aF152.596
aS'A4c'
p472
aF2.25
aF0.2981
aF0.3605
aF71.5
aF0.2769
aa(lp473
F16.17
aF148.949
aS'A4c'
p474
aF2.25
aF0.2981
aF0.3605
aF71.5
aF1.3841999999999999
aa(lp475
F18.556
aF144.877
aS'A4c'
p476
aF2.25
aF0.2981
aF0.3605
aF71.5
aF2.7600000000000002
aa(lp477
F23.768
aF137.869
aS'A4c'
p478
aF2.25
aF0.2981
aF0.3605
aF71.5
aF5.5371
aa(lp479
F37.48
aF127.346
aS'A4c'
p480
aF2.25
aF0.2981
aF0.3605
aF71.5
aF11.0739
aa(lp481
F13.697
aF212.191
aS'A4c'
p482
aF2.25
aF0.3975
aF0.4806
aF71.5
aF0.2769
aa(lp483
F15.291
aF208.044
aS'A4c'
p484
aF2.25
aF0.3975
aF0.4806
aF71.5
aF1.3841999999999999
aa(lp485
F17.445
aF203.257
aS'A4c'
p486
aF2.25
aF0.3975
aF0.4806
aF71.5
aF2.7600000000000002
aa(lp487
F22.184
aF194.892
aS'A4c'
p488
aF2.25
aF0.3975
aF0.4806
aF71.5
aF5.5371
aa(lp489
F34.633
aF181.464
aS'A4c'
p490
aF2.25
aF0.3975
aF0.4806
aF71.5
aF11.0739
aa(lp491
F43.492
aF5.102
aS'A4c'
p492
aF3.45
aF0.0
aF0.0
aF71.5
aF0.2769
aa(lp493
F48.753
aF5.497
aS'A4c'
p494
aF3.45
aF0.0
aF0.0
aF71.5
aF1.3841999999999999
aa(lp495
F53.842
aF5.998
aS'A4c'
p496
aF3.45
aF0.0
aF0.0
aF71.5
aF2.7600000000000002
aa(lp497
F64.032
aF7.014
aS'A4c'
p498
aF3.45
aF0.0
aF0.0
aF71.5
aF5.5371
aa(lp499
F84.456
aF9.087
aS'A4c'
p500
aF3.45
aF0.0
aF0.0
aF71.5
aF11.0739
aa(lp501
F33.845
aF11.212
aS'A4c'
p502
aF3.45
aF0.0497
aF0.0601
aF71.5
aF0.2769
aa(lp503
F37.352
aF11.588
aS'A4c'
p504
aF3.45
aF0.0497
aF0.0601
aF71.5
aF1.3841999999999999
aa(lp505
F41.856
aF12.079
aS'A4c'
p506
aF3.45
aF0.0497
aF0.0601
aF71.5
aF2.7600000000000002
aa(lp507
F52.566
aF13.101
aS'A4c'
p508
aF3.45
aF0.0497
aF0.0601
aF71.5
aF5.5371
aa(lp509
F72.304
aF15.258
aS'A4c'
p510
aF3.45
aF0.0497
aF0.0601
aF71.5
aF11.0739
aa(lp511
F29.012
aF22.802
aS'A4c'
p512
aF3.45
aF0.0994
aF0.1202
aF71.5
aF0.2769
aa(lp513
F32.103
aF22.96
aS'A4c'
p514
aF3.45
aF0.0994
aF0.1202
aF71.5
aF1.3841999999999999
aa(lp515
F36.087
aF23.202
aS'A4c'
p516
aF3.45
aF0.0994
aF0.1202
aF71.5
aF2.7600000000000002
aa(lp517
F45.66
aF23.822
aS'A4c'
p518
aF3.45
aF0.0994
aF0.1202
aF71.5
aF5.5371
aa(lp519
F63.982
aF24.087
aS'A4c'
p520
aF3.45
aF0.0994
aF0.1202
aF71.5
aF11.0739
aa(lp521
F26.377
aF39.77
aS'A4c'
p522
aF3.45
aF0.1491
aF0.1802
aF71.5
aF0.2769
aa(lp523
F29.138
aF37.838
aS'A4c'
p524
aF3.45
aF0.1491
aF0.1802
aF71.5
aF1.3841999999999999
aa(lp525
F32.731
aF36.075
aS'A4c'
p526
aF3.45
aF0.1491
aF0.1802
aF71.5
aF2.7600000000000002
aa(lp527
F40.358
aF36.183
aS'A4c'
p528
aF3.45
aF0.1491
aF0.1802
aF71.5
aF5.5371
aa(lp529
F58.495
aF36.949
aS'A4c'
p530
aF3.45
aF0.1491
aF0.1802
aF71.5
aF11.0739
aa(lp531
F24.717
aF67.306
aS'A4c'
p532
aF3.45
aF0.1988
aF0.2403
aF71.5
aF0.2769
aa(lp533
F27.232
aF65.432
aS'A4c'
p534
aF3.45
aF0.1988
aF0.2403
aF71.5
aF1.3841999999999999
aa(lp535
F30.557
aF63.395
aS'A4c'
p536
aF3.45
aF0.1988
aF0.2403
aF71.5
aF2.7600000000000002
aa(lp537
F37.607
aF58.833
aS'A4c'
p538
aF3.45
aF0.1988
aF0.2403
aF71.5
aF5.5371
aa(lp539
F54.644
aF52.08
aS'A4c'
p540
aF3.45
aF0.1988
aF0.2403
aF71.5
aF11.0739
aa(lp541
F21.562
aF115.206
aS'A4c'
p542
aF3.45
aF0.2981
aF0.3605
aF71.5
aF0.2769
aa(lp543
F24.895
aF112.54
aS'A4c'
p544
aF3.45
aF0.2981
aF0.3605
aF71.5
aF1.3841999999999999
aa(lp545
F27.757
aF109.519
aS'A4c'
p546
aF3.45
aF0.2981
aF0.3605
aF71.5
aF2.7600000000000002
aa(lp547
F34.017
aF104.394
aS'A4c'
p548
aF3.45
aF0.2981
aF0.3605
aF71.5
aF5.5371
aa(lp549
F49.471
aF96.799
aS'A4c'
p550
aF3.45
aF0.2981
aF0.3605
aF71.5
aF11.0739
aa(lp551
F20.405
aF167.489
aS'A4c'
p552
aF3.45
aF0.3975
aF0.4806
aF71.5
aF0.2769
aa(lp553
F23.465
aF164.202
aS'A4c'
p554
aF3.45
aF0.3975
aF0.4806
aF71.5
aF1.3841999999999999
aa(lp555
F26.059
aF160.424
aS'A4c'
p556
aF3.45
aF0.3975
aF0.4806
aF71.5
aF2.7600000000000002
aa(lp557
F31.643
aF153.766
aS'A4c'
p558
aF3.45
aF0.3975
aF0.4806
aF71.5
aF5.5371
aa(lp559
F45.842
aF143.386
aS'A4c'
p560
aF3.45
aF0.3975
aF0.4806
aF71.5
aF11.0739
aa(lp561
F0.0
aF26.076
aS'A4c'
p562
aF0.006
aF0.0
aF0.0
aF656.5
aF0.2769
aa(lp563
F0.0
aF12.35
aS'A4c'
p564
aF0.006
aF0.0
aF0.0
aF656.5
aF1.3841999999999999
aa(lp565
F0.0
aF8.921
aS'A4c'
p566
aF0.006
aF0.0
aF0.0
aF656.5
aF2.7600000000000002
aa(lp567
F4.245
aF6.066
aS'A4c'
p568
aF0.006
aF0.0
aF0.0
aF656.5
aF5.5371
aa(lp569
F23.44
aF7.464
aS'A4c'
p570
aF0.006
aF0.0
aF0.0
aF656.5
aF11.0739
aa(lp571
F0.0
aF72.831
aS'A4c'
p572
aF0.006
aF0.0497
aF0.0601
aF656.5
aF0.2769
aa(lp573
F0.0
aF64.135
aS'A4c'
p574
aF0.006
aF0.0497
aF0.0601
aF656.5
aF1.3841999999999999
aa(lp575
F0.0
aF53.38
aS'A4c'
p576
aF0.006
aF0.0497
aF0.0601
aF656.5
aF2.7600000000000002
aa(lp577
F0.0
aF32.654
aS'A4c'
p578
aF0.006
aF0.0497
aF0.0601
aF656.5
aF5.5371
aa(lp579
F6.77
aF25.689
aS'A4c'
p580
aF0.006
aF0.0497
aF0.0601
aF656.5
aF11.0739
aa(lp581
F0.0
aF119.904
aS'A4c'
p582
aF0.006
aF0.0994
aF0.1202
aF656.5
aF0.2769
aa(lp583
F0.0
aF111.212
aS'A4c'
p584
aF0.006
aF0.0994
aF0.1202
aF656.5
aF1.3841999999999999
aa(lp585
F0.0
aF100.346
aS'A4c'
p586
aF0.006
aF0.0994
aF0.1202
aF656.5
aF2.7600000000000002
aa(lp587
F0.0
aF80.906
aS'A4c'
p588
aF0.006
aF0.0994
aF0.1202
aF656.5
aF5.5371
aa(lp589
F1.348
aF56.9
aS'A4c'
p590
aF0.006
aF0.0994
aF0.1202
aF656.5
aF11.0739
aa(lp591
F0.0
aF166.976
aS'A4c'
p592
aF0.006
aF0.1491
aF0.1802
aF656.5
aF0.2769
aa(lp593
F0.0
aF158.287
aS'A4c'
p594
aF0.006
aF0.1491
aF0.1802
aF656.5
aF1.3841999999999999
aa(lp595
F0.0
aF147.419
aS'A4c'
p596
aF0.006
aF0.1491
aF0.1802
aF656.5
aF2.7600000000000002
aa(lp597
F0.0
aF126.758
aS'A4c'
p598
aF0.006
aF0.1491
aF0.1802
aF656.5
aF5.5371
aa(lp599
F0.0
aF98.334
aS'A4c'
p600
aF0.006
aF0.1491
aF0.1802
aF656.5
aF11.0739
aa(lp601
F0.0
aF214.048
aS'A4c'
p602
aF0.006
aF0.1988
aF0.2403
aF656.5
aF0.2769
aa(lp603
F0.0
aF205.36
aS'A4c'
p604
aF0.006
aF0.1988
aF0.2403
aF656.5
aF1.3841999999999999
aa(lp605
F0.0
aF194.495
aS'A4c'
p606
aF0.006
aF0.1988
aF0.2403
aF656.5
aF2.7600000000000002
aa(lp607
F0.0
aF173.302
aS'A4c'
p608
aF0.006
aF0.1988
aF0.2403
aF656.5
aF5.5371
aa(lp609
F0.0
aF140.573
aS'A4c'
p610
aF0.006
aF0.1988
aF0.2403
aF656.5
aF11.0739
aa(lp611
F0.0
aF308.19
aS'A4c'
p612
aF0.006
aF0.2981
aF0.3605
aF656.5
aF0.2769
aa(lp613
F0.0
aF299.502
aS'A4c'
p614
aF0.006
aF0.2981
aF0.3605
aF656.5
aF1.3841999999999999
aa(lp615
F0.0
aF288.64
aS'A4c'
p616
aF0.006
aF0.2981
aF0.3605
aF656.5
aF2.7600000000000002
aa(lp617
F0.0
aF267.073
aS'A4c'
p618
aF0.006
aF0.2981
aF0.3605
aF656.5
aF5.5371
aa(lp619
F0.0
aF229.444
aS'A4c'
p620
aF0.006
aF0.2981
aF0.3605
aF656.5
aF11.0739
aa(lp621
F0.0
aF386.683
aS'A4c'
p622
aF0.006
aF0.3975
aF0.4806
aF656.5
aF0.2769
aa(lp623
F0.0
aF377.996
aS'A4c'
p624
aF0.006
aF0.3975
aF0.4806
aF656.5
aF1.3841999999999999
aa(lp625
F0.0
aF367.135
aS'A4c'
p626
aF0.006
aF0.3975
aF0.4806
aF656.5
aF2.7600000000000002
aa(lp627
F0.0
aF345.477
aS'A4c'
p628
aF0.006
aF0.3975
aF0.4806
aF656.5
aF5.5371
aa(lp629
F0.0
aF305.653
aS'A4c'
p630
aF0.006
aF0.3975
aF0.4806
aF656.5
aF11.0739
aa(lp631
F0.0
aF4.681
aS'A4c'
p632
aF0.5
aF0.0
aF0.0
aF656.5
aF0.2769
aa(lp633
F2.621
aF4.932
aS'A4c'
p634
aF0.5
aF0.0
aF0.0
aF656.5
aF1.3841999999999999
aa(lp635
F8.037
aF5.244
aS'A4c'
p636
aF0.5
aF0.0
aF0.0
aF656.5
aF2.7600000000000002
aa(lp637
F18.553
aF5.904
aS'A4c'
p638
aF0.5
aF0.0
aF0.0
aF656.5
aF5.5371
aa(lp639
F37.078
aF7.472
aS'A4c'
p640
aF0.5
aF0.0
aF0.0
aF656.5
aF11.0739
aa(lp641
F0.0
aF34.38
aS'A4c'
p642
aF0.5
aF0.0497
aF0.0601
aF656.5
aF0.2769
aa(lp643
F0.0
aF28.251
aS'A4c'
p644
aF0.5
aF0.0497
aF0.0601
aF656.5
aF1.3841999999999999
aa(lp645
F0.0
aF23.419
aS'A4c'
p646
aF0.5
aF0.0497
aF0.0601
aF656.5
aF2.7600000000000002
aa(lp647
F4.5
aF22.044
aS'A4c'
p648
aF0.5
aF0.0497
aF0.0601
aF656.5
aF5.5371
aa(lp649
F21.14
aF20.359
aS'A4c'
p650
aF0.5
aF0.0497
aF0.0601
aF656.5
aF11.0739
aa(lp651
F0.0
aF79.644
aS'A4c'
p652
aF0.5
aF0.0994
aF0.1202
aF656.5
aF0.2769
aa(lp653
F0.0
aF71.651
aS'A4c'
p654
aF0.5
aF0.0994
aF0.1202
aF656.5
aF1.3841999999999999
aa(lp655
F0.0
aF63.324
aS'A4c'
p656
aF0.5
aF0.0994
aF0.1202
aF656.5
aF2.7600000000000002
aa(lp657
F0.0
aF47.381
aS'A4c'
p658
aF0.5
aF0.0994
aF0.1202
aF656.5
aF5.5371
aa(lp659
F10.492
aF39.261
aS'A4c'
p660
aF0.5
aF0.0994
aF0.1202
aF656.5
aF11.0739
aa(lp661
F0.0
aF121.696
aS'A4c'
p662
aF0.5
aF0.1491
aF0.1802
aF656.5
aF0.2769
aa(lp663
F0.0
aF113.233
aS'A4c'
p664
aF0.5
aF0.1491
aF0.1802
aF656.5
aF1.3841999999999999
aa(lp665
F0.0
aF103.61
aS'A4c'
p666
aF0.5
aF0.1491
aF0.1802
aF656.5
aF2.7600000000000002
aa(lp667
F0.0
aF88.691
aS'A4c'
p668
aF0.5
aF0.1491
aF0.1802
aF656.5
aF5.5371
aa(lp669
F5.909
aF72.391
aS'A4c'
p670
aF0.5
aF0.1491
aF0.1802
aF656.5
aF11.0739
aa(lp671
F0.0
aF163.828
aS'A4c'
p672
aF0.5
aF0.1988
aF0.2403
aF656.5
aF0.2769
aa(lp673
F0.0
aF155.227
aS'A4c'
p674
aF0.5
aF0.1988
aF0.2403
aF656.5
aF1.3841999999999999
aa(lp675
F0.0
aF144.996
aS'A4c'
p676
aF0.5
aF0.1988
aF0.2403
aF656.5
aF2.7600000000000002
aa(lp677
F0.0
aF127.804
aS'A4c'
p678
aF0.5
aF0.1988
aF0.2403
aF656.5
aF5.5371
aa(lp679
F1.736
aF106.116
aS'A4c'
p680
aF0.5
aF0.1988
aF0.2403
aF656.5
aF11.0739
aa(lp681
F0.0
aF248.135
aS'A4c'
p682
aF0.5
aF0.2981
aF0.3605
aF656.5
aF0.2769
aa(lp683
F0.0
aF239.474
aS'A4c'
p684
aF0.5
aF0.2981
aF0.3605
aF656.5
aF1.3841999999999999
aa(lp685
F0.0
aF228.804
aS'A4c'
p686
aF0.5
aF0.2981
aF0.3605
aF656.5
aF2.7600000000000002
aa(lp687
F0.0
aF209.215
aS'A4c'
p688
aF0.5
aF0.2981
aF0.3605
aF656.5
aF5.5371
aa(lp689
F0.0
aF179.983
aS'A4c'
p690
aF0.5
aF0.2981
aF0.3605
aF656.5
aF11.0739
aa(lp691
F0.0
aF320.769
aS'A4c'
p692
aF0.5
aF0.3975
aF0.4806
aF656.5
aF0.2769
aa(lp693
F0.0
aF312.092
aS'A4c'
p694
aF0.5
aF0.3975
aF0.4806
aF656.5
aF1.3841999999999999
aa(lp695
F0.0
aF301.319
aS'A4c'
p696
aF0.5
aF0.3975
aF0.4806
aF656.5
aF2.7600000000000002
aa(lp697
F0.0
aF280.734
aS'A4c'
p698
aF0.5
aF0.3975
aF0.4806
aF656.5
aF5.5371
aa(lp699
F0.0
aF247.375
aS'A4c'
p700
aF0.5
aF0.3975
aF0.4806
aF656.5
aF11.0739
aa(lp701
F4.875
aF4.604
aS'A4c'
p702
aF0.75
aF0.0
aF0.0
aF656.5
aF0.2769
aa(lp703
F8.761
aF4.855
aS'A4c'
p704
aF0.75
aF0.0
aF0.0
aF656.5
aF1.3841999999999999
aa(lp705
F15.04
aF5.176
aS'A4c'
p706
aF0.75
aF0.0
aF0.0
aF656.5
aF2.7600000000000002
aa(lp707
F24.287
aF5.874
aS'A4c'
p708
aF0.75
aF0.0
aF0.0
aF656.5
aF5.5371
aa(lp709
F44.379
aF7.515
aS'A4c'
p710
aF0.75
aF0.0
aF0.0
aF656.5
aF11.0739
aa(lp711
F0.0
aF24.041
aS'A4c'
p712
aF0.75
aF0.0497
aF0.0601
aF656.5
aF0.2769
aa(lp713
F0.0
aF21.599
aS'A4c'
p714
aF0.75
aF0.0497
aF0.0601
aF656.5
aF1.3841999999999999
aa(lp715
F0.0
aF20.841
aS'A4c'
p716
aF0.75
aF0.0497
aF0.0601
aF656.5
aF2.7600000000000002
aa(lp717
F9.078
aF18.723
aS'A4c'
p718
aF0.75
aF0.0497
aF0.0601
aF656.5
aF5.5371
aa(lp719
F27.086
aF19.123
aS'A4c'
p720
aF0.75
aF0.0497
aF0.0601
aF656.5
aF11.0739
aa(lp721
F0.0
aF64.073
aS'A4c'
p722
aF0.75
aF0.0994
aF0.1202
aF656.5
aF0.2769
aa(lp723
F0.0
aF57.715
aS'A4c'
p724
aF0.75
aF0.0994
aF0.1202
aF656.5
aF1.3841999999999999
aa(lp725
F0.0
aF47.839
aS'A4c'
p726
aF0.75
aF0.0994
aF0.1202
aF656.5
aF2.7600000000000002
aa(lp727
F1.456
aF40.513
aS'A4c'
p728
aF0.75
aF0.0994
aF0.1202
aF656.5
aF5.5371
aa(lp729
F15.91
aF34.67
aS'A4c'
p730
aF0.75
aF0.0994
aF0.1202
aF656.5
aF11.0739
aa(lp731
F0.0
aF103.164
aS'A4c'
p732
aF0.75
aF0.1491
aF0.1802
aF656.5
aF0.2769
aa(lp733
F0.0
aF95.65
aS'A4c'
p734
aF0.75
aF0.1491
aF0.1802
aF656.5
aF1.3841999999999999
aa(lp735
F0.0
aF87.659
aS'A4c'
p736
aF0.75
aF0.1491
aF0.1802
aF656.5
aF2.7600000000000002
aa(lp737
F0.0
aF76.085
aS'A4c'
p738
aF0.75
aF0.1491
aF0.1802
aF656.5
aF5.5371
aa(lp739
F8.699
aF58.508
aS'A4c'
p740
aF0.75
aF0.1491
aF0.1802
aF656.5
aF11.0739
aa(lp741
F0.0
aF142.916
aS'A4c'
p742
aF0.75
aF0.1988
aF0.2403
aF656.5
aF0.2769
aa(lp743
F0.0
aF134.816
aS'A4c'
p744
aF0.75
aF0.1988
aF0.2403
aF656.5
aF1.3841999999999999
aa(lp745
F0.0
aF125.751
aS'A4c'
p746
aF0.75
aF0.1988
aF0.2403
aF656.5
aF2.7600000000000002
aa(lp747
F0.0
aF111.409
aS'A4c'
p748
aF0.75
aF0.1988
aF0.2403
aF656.5
aF5.5371
aa(lp749
F6.22
aF94.079
aS'A4c'
p750
aF0.75
aF0.1988
aF0.2403
aF656.5
aF11.0739
aa(lp751
F0.0
aF222.874
aS'A4c'
p752
aF0.75
aF0.2981
aF0.3605
aF656.5
aF0.2769
aa(lp753
F0.0
aF214.378
aS'A4c'
p754
aF0.75
aF0.2981
aF0.3605
aF656.5
aF1.3841999999999999
aa(lp755
F0.0
aF204.239
aS'A4c'
p756
aF0.75
aF0.2981
aF0.3605
aF656.5
aF2.7600000000000002
aa(lp757
F0.0
aF186.575
aS'A4c'
p758
aF0.75
aF0.2981
aF0.3605
aF656.5
aF5.5371
aa(lp759
F1.499
aF161.586
aS'A4c'
p760
aF0.75
aF0.2981
aF0.3605
aF656.5
aF11.0739
aa(lp761
F0.0
aF292.994
aS'A4c'
p762
aF0.75
aF0.3975
aF0.4806
aF656.5
aF0.2769
aa(lp763
F0.0
aF284.399
aS'A4c'
p764
aF0.75
aF0.3975
aF0.4806
aF656.5
aF1.3841999999999999
aa(lp765
F0.0
aF273.893
aS'A4c'
p766
aF0.75
aF0.3975
aF0.4806
aF656.5
aF2.7600000000000002
aa(lp767
F0.0
aF254.627
aS'A4c'
p768
aF0.75
aF0.3975
aF0.4806
aF656.5
aF5.5371
aa(lp769
F0.0
aF224.921
aS'A4c'
p770
aF0.75
aF0.3975
aF0.4806
aF656.5
aF11.0739
aa(lp771
F9.76
aF4.541
aS'A4c'
p772
aF1.0
aF0.0
aF0.0
aF656.5
aF0.2769
aa(lp773
F15.569
aF4.797
aS'A4c'
p774
aF1.0
aF0.0
aF0.0
aF656.5
aF1.3841999999999999
aa(lp775
F20.188
aF5.133
aS'A4c'
p776
aF1.0
aF0.0
aF0.0
aF656.5
aF2.7600000000000002
aa(lp777
F29.448
aF5.871
aS'A4c'
p778
aF1.0
aF0.0
aF0.0
aF656.5
aF5.5371
aa(lp779
F49.894
aF7.571
aS'A4c'
p780
aF1.0
aF0.0
aF0.0
aF656.5
aF11.0739
aa(lp781
F0.0
aF19.913
aS'A4c'
p782
aF1.0
aF0.0497
aF0.0601
aF656.5
aF0.2769
aa(lp783
F1.322
aF19.322
aS'A4c'
p784
aF1.0
aF0.0497
aF0.0601
aF656.5
aF1.3841999999999999
aa(lp785
F5.635
aF17.493
aS'A4c'
p786
aF1.0
aF0.0497
aF0.0601
aF656.5
aF2.7600000000000002
aa(lp787
F12.942
aF17.417
aS'A4c'
p788
aF1.0
aF0.0497
aF0.0601
aF656.5
aF5.5371
aa(lp789
F32.554
aF18.111
aS'A4c'
p790
aF1.0
aF0.0497
aF0.0601
aF656.5
aF11.0739
aa(lp791
F0.0
aF52.28
aS'A4c'
p792
aF1.0
aF0.0994
aF0.1202
aF656.5
aF0.2769
aa(lp793
F0.0
aF44.351
aS'A4c'
p794
aF1.0
aF0.0994
aF0.1202
aF656.5
aF1.3841999999999999
aa(lp795
F0.0
aF39.223
aS'A4c'
p796
aF1.0
aF0.0994
aF0.1202
aF656.5
aF2.7600000000000002
aa(lp797
F5.924
aF35.018
aS'A4c'
p798
aF1.0
aF0.0994
aF0.1202
aF656.5
aF5.5371
aa(lp799
F21.992
aF32.258
aS'A4c'
p800
aF1.0
aF0.0994
aF0.1202
aF656.5
aF11.0739
aa(lp801
F0.0
aF87.864
aS'A4c'
p802
aF1.0
aF0.1491
aF0.1802
aF656.5
aF0.2769
aa(lp803
F0.0
aF81.648
aS'A4c'
p804
aF1.0
aF0.1491
aF0.1802
aF656.5
aF1.3841999999999999
aa(lp805
F0.0
aF75.335
aS'A4c'
p806
aF1.0
aF0.1491
aF0.1802
aF656.5
aF2.7600000000000002
aa(lp807
F1.465
aF66.356
aS'A4c'
p808
aF1.0
aF0.1491
aF0.1802
aF656.5
aF5.5371
aa(lp809
F14.549
aF52.149
aS'A4c'
p810
aF1.0
aF0.1491
aF0.1802
aF656.5
aF11.0739
aa(lp811
F0.0
aF124.856
aS'A4c'
p812
aF1.0
aF0.1988
aF0.2403
aF656.5
aF0.2769
aa(lp813
F0.0
aF117.743
aS'A4c'
p814
aF1.0
aF0.1988
aF0.2403
aF656.5
aF1.3841999999999999
aa(lp815
F0.0
aF110.076
aS'A4c'
p816
aF1.0
aF0.1988
aF0.2403
aF656.5
aF2.7600000000000002
aa(lp817
F0.0
aF98.349
aS'A4c'
p818
aF1.0
aF0.1988
aF0.2403
aF656.5
aF5.5371
aa(lp819
F8.737
aF84.304
aS'A4c'
p820
aF1.0
aF0.1988
aF0.2403
aF656.5
aF11.0739
aa(lp821
F0.0
aF200.398
aS'A4c'
p822
aF1.0
aF0.2981
aF0.3605
aF656.5
aF0.2769
aa(lp823
F0.0
aF192.335
aS'A4c'
p824
aF1.0
aF0.2981
aF0.3605
aF656.5
aF1.3841999999999999
aa(lp825
F0.0
aF183.069
aS'A4c'
p826
aF1.0
aF0.2981
aF0.3605
aF656.5
aF2.7600000000000002
aa(lp827
F0.0
aF167.584
aS'A4c'
p828
aF1.0
aF0.2981
aF0.3605
aF656.5
aF5.5371
aa(lp829
F5.117
aF146.315
aS'A4c'
p830
aF1.0
aF0.2981
aF0.3605
aF656.5
aF11.0739
aa(lp831
F0.0
aF268.101
aS'A4c'
p832
aF1.0
aF0.3975
aF0.4806
aF656.5
aF0.2769
aa(lp833
F0.0
aF259.734
aS'A4c'
p834
aF1.0
aF0.3975
aF0.4806
aF656.5
aF1.3841999999999999
aa(lp835
F0.0
aF249.761
aS'A4c'
p836
aF1.0
aF0.3975
aF0.4806
aF656.5
aF2.7600000000000002
aa(lp837
F0.0
aF232.132
aS'A4c'
p838
aF1.0
aF0.3975
aF0.4806
aF656.5
aF5.5371
aa(lp839
F1.477
aF205.963
aS'A4c'
p840
aF1.0
aF0.3975
aF0.4806
aF656.5
aF11.0739
aa(lp841
F16.528
aF4.491
aS'A4c'
p842
aF1.25
aF0.0
aF0.0
aF656.5
aF0.2769
aa(lp843
F20.222
aF4.759
aS'A4c'
p844
aF1.25
aF0.0
aF0.0
aF656.5
aF1.3841999999999999
aa(lp845
F24.85
aF5.113
aS'A4c'
p846
aF1.25
aF0.0
aF0.0
aF656.5
aF2.7600000000000002
aa(lp847
F34.121
aF5.888
aS'A4c'
p848
aF1.25
aF0.0
aF0.0
aF656.5
aF5.5371
aa(lp849
F54.885
aF7.636
aS'A4c'
p850
aF1.25
aF0.0
aF0.0
aF656.5
aF11.0739
aa(lp851
F2.805
aF16.443
aS'A4c'
p852
aF1.25
aF0.0497
aF0.0601
aF656.5
aF0.2769
aa(lp853
F5.833
aF16.33
aS'A4c'
p854
aF1.25
aF0.0497
aF0.0601
aF656.5
aF1.3841999999999999
aa(lp855
F10.006
aF16.251
aS'A4c'
p856
aF1.25
aF0.0497
aF0.0601
aF656.5
aF2.7600000000000002
aa(lp857
F19.861
aF16.324
aS'A4c'
p858
aF1.25
aF0.0497
aF0.0601
aF656.5
aF5.5371
aa(lp859
F37.585
aF15.845
aS'A4c'
p860
aF1.25
aF0.0497
aF0.0601
aF656.5
aF11.0739
aa(lp861
F0.0
aF38.367
aS'A4c'
p862
aF1.25
aF0.0994
aF0.1202
aF656.5
aF0.2769
aa(lp863
F0.0
aF36.781
aS'A4c'
p864
aF1.25
aF0.0994
aF0.1202
aF656.5
aF1.3841999999999999
aa(lp865
F2.956
aF35.164
aS'A4c'
p866
aF1.25
aF0.0994
aF0.1202
aF656.5
aF2.7600000000000002
aa(lp867
F9.929
aF30.919
aS'A4c'
p868
aF1.25
aF0.0994
aF0.1202
aF656.5
aF5.5371
aa(lp869
F26.926
aF30.245
aS'A4c'
p870
aF1.25
aF0.0994
aF0.1202
aF656.5
aF11.0739
aa(lp871
F0.0
aF75.654
aS'A4c'
p872
aF1.25
aF0.1491
aF0.1802
aF656.5
aF0.2769
aa(lp873
F0.0
aF70.715
aS'A4c'
p874
aF1.25
aF0.1491
aF0.1802
aF656.5
aF1.3841999999999999
aa(lp875
F0.0
aF65.762
aS'A4c'
p876
aF1.25
aF0.1491
aF0.1802
aF656.5
aF2.7600000000000002
aa(lp877
F5.434
aF51.945
aS'A4c'
p878
aF1.25
aF0.1491
aF0.1802
aF656.5
aF5.5371
aa(lp879
F18.464
aF48.183
aS'A4c'
p880
aF1.25
aF0.1491
aF0.1802
aF656.5
aF11.0739
aa(lp881
F0.0
aF109.798
aS'A4c'
p882
aF1.25
aF0.1988
aF0.2403
aF656.5
aF0.2769
aa(lp883
F0.0
aF103.772
aS'A4c'
p884
aF1.25
aF0.1988
aF0.2403
aF656.5
aF1.3841999999999999
aa(lp885
F0.0
aF97.403
aS'A4c'
p886
aF1.25
aF0.1988
aF0.2403
aF656.5
aF2.7600000000000002
aa(lp887
F1.575
aF87.781
aS'A4c'
p888
aF1.25
aF0.1988
aF0.2403
aF656.5
aF5.5371
aa(lp889
F12.926
aF76.276
aS'A4c'
p890
aF1.25
aF0.1988
aF0.2403
aF656.5
aF11.0739
aa(lp891
F0.0
aF180.615
aS'A4c'
p892
aF1.25
aF0.2981
aF0.3605
aF656.5
aF0.2769
aa(lp893
F0.0
aF173.265
aS'A4c'
p894
aF1.25
aF0.2981
aF0.3605
aF656.5
aF1.3841999999999999
aa(lp895
F0.0
aF165.103
aS'A4c'
p896
aF1.25
aF0.2981
aF0.3605
aF656.5
aF2.7600000000000002
aa(lp897
F0.0
aF151.663
aS'A4c'
p898
aF1.25
aF0.2981
aF0.3605
aF656.5
aF5.5371
aa(lp899
F7.183
aF133.409
aS'A4c'
p900
aF1.25
aF0.2981
aF0.3605
aF656.5
aF11.0739
aa(lp901
F0.0
aF245.869
aS'A4c'
p902
aF1.25
aF0.3975
aF0.4806
aF656.5
aF0.2769
aa(lp903
F0.0
aF237.912
aS'A4c'
p904
aF1.25
aF0.3975
aF0.4806
aF656.5
aF1.3841999999999999
aa(lp905
F0.0
aF228.674
aS'A4c'
p906
aF1.25
aF0.3975
aF0.4806
aF656.5
aF2.7600000000000002
aa(lp907
F0.0
aF212.907
aS'A4c'
p908
aF1.25
aF0.3975
aF0.4806
aF656.5
aF5.5371
aa(lp909
F4.836
aF189.84
aS'A4c'
p910
aF1.25
aF0.3975
aF0.4806
aF656.5
aF11.0739
aa(lp911
F20.759
aF4.459
aS'A4c'
p912
aF1.5
aF0.0
aF0.0
aF656.5
aF0.2769
aa(lp913
F24.462
aF4.74
aS'A4c'
p914
aF1.5
aF0.0
aF0.0
aF656.5
aF1.3841999999999999
aa(lp915
F29.095
aF5.111
aS'A4c'
p916
aF1.5
aF0.0
aF0.0
aF656.5
aF2.7600000000000002
aa(lp917
F39.843
aF5.917
aS'A4c'
p918
aF1.5
aF0.0
aF0.0
aF656.5
aF5.5371
aa(lp919
F59.432
aF7.705
aS'A4c'
p920
aF1.5
aF0.0
aF0.0
aF656.5
aF11.0739
aa(lp921
F7.537
aF15.27
aS'A4c'
p922
aF1.5
aF0.0497
aF0.0601
aF656.5
aF0.2769
aa(lp923
F10.01
aF15.206
aS'A4c'
p924
aF1.5
aF0.0497
aF0.0601
aF656.5
aF1.3841999999999999
aa(lp925
F15.728
aF15.193
aS'A4c'
p926
aF1.5
aF0.0497
aF0.0601
aF656.5
aF2.7600000000000002
aa(lp927
F24.296
aF13.979
aS'A4c'
p928
aF1.5
aF0.0497
aF0.0601
aF656.5
aF5.5371
aa(lp929
F43.505
aF15.375
aS'A4c'
p930
aF1.5
aF0.0497
aF0.0601
aF656.5
aF11.0739
aa(lp931
F0.0
aF34.383
aS'A4c'
p932
aF1.5
aF0.0994
aF0.1202
aF656.5
aF0.2769
aa(lp933
F4.245
aF31.716
aS'A4c'
p934
aF1.5
aF0.0994
aF0.1202
aF656.5
aF1.3841999999999999
aa(lp935
F6.352
aF29.552
aS'A4c'
p936
aF1.5
aF0.0994
aF0.1202
aF656.5
aF2.7600000000000002
aa(lp937
F14.344
aF28.794
aS'A4c'
p938
aF1.5
aF0.0994
aF0.1202
aF656.5
aF5.5371
aa(lp939
F31.556
aF28.526
aS'A4c'
p940
aF1.5
aF0.0994
aF0.1202
aF656.5
aF11.0739
aa(lp941
F0.0
aF66.044
aS'A4c'
p942
aF1.5
aF0.1491
aF0.1802
aF656.5
aF0.2769
aa(lp943
F0.0
aF62.12
aS'A4c'
p944
aF1.5
aF0.1491
aF0.1802
aF656.5
aF1.3841999999999999
aa(lp945
F1.578
aF53.761
aS'A4c'
p946
aF1.5
aF0.1491
aF0.1802
aF656.5
aF2.7600000000000002
aa(lp947
F7.651
aF47.714
aS'A4c'
p948
aF1.5
aF0.1491
aF0.1802
aF656.5
aF5.5371
aa(lp949
F23.995
aF43.689
aS'A4c'
p950
aF1.5
aF0.1491
aF0.1802
aF656.5
aF11.0739
aa(lp951
F0.0
aF97.383
aS'A4c'
p952
aF1.5
aF0.1988
aF0.2403
aF656.5
aF0.2769
aa(lp953
F0.0
aF92.319
aS'A4c'
p954
aF1.5
aF0.1988
aF0.2403
aF656.5
aF1.3841999999999999
aa(lp955
F0.0
aF87.038
aS'A4c'
p956
aF1.5
aF0.1988
aF0.2403
aF656.5
aF2.7600000000000002
aa(lp957
F5.463
aF79.059
aS'A4c'
p958
aF1.5
aF0.1988
aF0.2403
aF656.5
aF5.5371
aa(lp959
F17.652
aF65.338
aS'A4c'
p960
aF1.5
aF0.1988
aF0.2403
aF656.5
aF11.0739
aa(lp961
F0.0
aF163.514
aS'A4c'
p962
aF1.5
aF0.2981
aF0.3605
aF656.5
aF0.2769
aa(lp963
F0.0
aF157.038
aS'A4c'
p964
aF1.5
aF0.2981
aF0.3605
aF656.5
aF1.3841999999999999
aa(lp965
F0.0
aF149.866
aS'A4c'
p966
aF1.5
aF0.2981
aF0.3605
aF656.5
aF2.7600000000000002
aa(lp967
F1.302
aF138.191
aS'A4c'
p968
aF1.5
aF0.2981
aF0.3605
aF656.5
aF5.5371
aa(lp969
F9.362
aF122.423
aS'A4c'
p970
aF1.5
aF0.2981
aF0.3605
aF656.5
aF11.0739
aa(lp971
F0.0
aF226.115
aS'A4c'
p972
aF1.5
aF0.3975
aF0.4806
aF656.5
aF0.2769
aa(lp973
F0.0
aF218.758
aS'A4c'
p974
aF1.5
aF0.3975
aF0.4806
aF656.5
aF1.3841999999999999
aa(lp975
F0.0
aF210.451
aS'A4c'
p976
aF1.5
aF0.3975
aF0.4806
aF656.5
aF2.7600000000000002
aa(lp977
F0.0
aF196.356
aS'A4c'
p978
aF1.5
aF0.3975
aF0.4806
aF656.5
aF5.5371
aa(lp979
F6.609
aF175.91
aS'A4c'
p980
aF1.5
aF0.3975
aF0.4806
aF656.5
aF11.0739
aa(lp981
F32.738
aF4.449
aS'A4c'
p982
aF2.25
aF0.0
aF0.0
aF656.5
aF0.2769
aa(lp983
F36.641
aF4.766
aS'A4c'
p984
aF2.25
aF0.0
aF0.0
aF656.5
aF1.3841999999999999
aa(lp985
F41.528
aF5.18
aS'A4c'
p986
aF2.25
aF0.0
aF0.0
aF656.5
aF2.7600000000000002
aa(lp987
F51.319
aF6.056
aS'A4c'
p988
aF2.25
aF0.0
aF0.0
aF656.5
aF5.5371
aa(lp989
F72.341
aF7.93
aS'A4c'
p990
aF2.25
aF0.0
aF0.0
aF656.5
aF11.0739
aa(lp991
F19.171
aF11.493
aS'A4c'
p992
aF2.25
aF0.0497
aF0.0601
aF656.5
aF0.2769
aa(lp993
F22.59
aF11.693
aS'A4c'
p994
aF2.25
aF0.0497
aF0.0601
aF656.5
aF1.3841999999999999
aa(lp995
F26.972
aF11.978
aS'A4c'
p996
aF2.25
aF0.0497
aF0.0601
aF656.5
aF2.7600000000000002
aa(lp997
F35.94
aF12.662
aS'A4c'
p998
aF2.25
aF0.0497
aF0.0601
aF656.5
aF5.5371
aa(lp999
F56.279
aF14.351
aS'A4c'
p1000
aF2.25
aF0.0497
aF0.0601
aF656.5
aF11.0739
aa(lp1001
F9.986
aF24.707
aS'A4c'
p1002
aF2.25
aF0.0994
aF0.1202
aF656.5
aF0.2769
aa(lp1003
F13.537
aF24.423
aS'A4c'
p1004
aF2.25
aF0.0994
aF0.1202
aF656.5
aF1.3841999999999999
aa(lp1005
F18.439
aF24.192
aS'A4c'
p1006
aF2.25
aF0.0994
aF0.1202
aF656.5
aF2.7600000000000002
aa(lp1007
F26.545
aF22.763
aS'A4c'
p1008
aF2.25
aF0.0994
aF0.1202
aF656.5
aF5.5371
aa(lp1009
F44.992
aF23.767
aS'A4c'
p1010
aF2.25
aF0.0994
aF0.1202
aF656.5
aF11.0739
aa(lp1011
F5.754
aF41.975
aS'A4c'
p1012
aF2.25
aF0.1491
aF0.1802
aF656.5
aF0.2769
aa(lp1013
F8.592
aF40.904
aS'A4c'
p1014
aF2.25
aF0.1491
aF0.1802
aF656.5
aF1.3841999999999999
aa(lp1015
F11.189
aF38.453
aS'A4c'
p1016
aF2.25
aF0.1491
aF0.1802
aF656.5
aF2.7600000000000002
aa(lp1017
F20.136
aF37.529
aS'A4c'
p1018
aF2.25
aF0.1491
aF0.1802
aF656.5
aF5.5371
aa(lp1019
F35.877
aF35.698
aS'A4c'
p1020
aF2.25
aF0.1491
aF0.1802
aF656.5
aF11.0739
aa(lp1021
F2.958
aF71.43
aS'A4c'
p1022
aF2.25
aF0.1988
aF0.2403
aF656.5
aF0.2769
aa(lp1023
F5.386
aF68.368
aS'A4c'
p1024
aF2.25
aF0.1988
aF0.2403
aF656.5
aF1.3841999999999999
aa(lp1025
F7.24
aF65.146
aS'A4c'
p1026
aF2.25
aF0.1988
aF0.2403
aF656.5
aF2.7600000000000002
aa(lp1027
F14.692
aF53.819
aS'A4c'
p1028
aF2.25
aF0.1988
aF0.2403
aF656.5
aF5.5371
aa(lp1029
F30.016
aF49.933
aS'A4c'
p1030
aF2.25
aF0.1988
aF0.2403
aF656.5
aF11.0739
aa(lp1031
F0.0
aF125.206
aS'A4c'
p1032
aF2.25
aF0.2981
aF0.3605
aF656.5
aF0.2769
aa(lp1033
F1.305
aF120.729
aS'A4c'
p1034
aF2.25
aF0.2981
aF0.3605
aF656.5
aF1.3841999999999999
aa(lp1035
F3.202
aF115.852
aS'A4c'
p1036
aF2.25
aF0.2981
aF0.3605
aF656.5
aF2.7600000000000002
aa(lp1037
F7.66
aF107.956
aS'A4c'
p1038
aF2.25
aF0.2981
aF0.3605
aF656.5
aF5.5371
aa(lp1039
F21.837
aF97.171
aS'A4c'
p1040
aF2.25
aF0.2981
aF0.3605
aF656.5
aF11.0739
aa(lp1041
F0.0
aF180.311
aS'A4c'
p1042
aF2.25
aF0.3975
aF0.4806
aF656.5
aF0.2769
aa(lp1043
F0.0
aF174.838
aS'A4c'
p1044
aF2.25
aF0.3975
aF0.4806
aF656.5
aF1.3841999999999999
aa(lp1045
F1.221
aF168.683
aS'A4c'
p1046
aF2.25
aF0.3975
aF0.4806
aF656.5
aF2.7600000000000002
aa(lp1047
F5.364
aF158.479
aS'A4c'
p1048
aF2.25
aF0.3975
aF0.4806
aF656.5
aF5.5371
aa(lp1049
F15.46
aF143.664
aS'A4c'
p1050
aF2.25
aF0.3975
aF0.4806
aF656.5
aF11.0739
aa(lp1051
F45.285
aF4.55
aS'A4c'
p1052
aF3.45
aF0.0
aF0.0
aF656.5
aF0.2769
aa(lp1053
F49.199
aF4.902
aS'A4c'
p1054
aF3.45
aF0.0
aF0.0
aF656.5
aF1.3841999999999999
aa(lp1055
F54.097
aF5.354
aS'A4c'
p1056
aF3.45
aF0.0
aF0.0
aF656.5
aF2.7600000000000002
aa(lp1057
F65.239
aF6.288
aS'A4c'
p1058
aF3.45
aF0.0
aF0.0
aF656.5
aF5.5371
aa(lp1059
F85.471
aF8.24
aS'A4c'
p1060
aF3.45
aF0.0
aF0.0
aF656.5
aF11.0739
aa(lp1061
F31.907
aF8.585
aS'A4c'
p1062
aF3.45
aF0.0497
aF0.0601
aF656.5
aF0.2769
aa(lp1063
F36.799
aF8.895
aS'A4c'
p1064
aF3.45
aF0.0497
aF0.0601
aF656.5
aF1.3841999999999999
aa(lp1065
F41.595
aF9.296
aS'A4c'
p1066
aF3.45
aF0.0497
aF0.0601
aF656.5
aF2.7600000000000002
aa(lp1067
F51.275
aF10.143
aS'A4c'
p1068
aF3.45
aF0.0497
aF0.0601
aF656.5
aF5.5371
aa(lp1069
F72.084
aF11.963
aS'A4c'
p1070
aF3.45
aF0.0497
aF0.0601
aF656.5
aF11.0739
aa(lp1071
F23.916
aF18.073
aS'A4c'
p1072
aF3.45
aF0.0994
aF0.1202
aF656.5
aF0.2769
aa(lp1073
F27.205
aF18.193
aS'A4c'
p1074
aF3.45
aF0.0994
aF0.1202
aF656.5
aF1.3841999999999999
aa(lp1075
F31.411
aF18.403
aS'A4c'
p1076
aF3.45
aF0.0994
aF0.1202
aF656.5
aF2.7600000000000002
aa(lp1077
F41.375
aF18.965
aS'A4c'
p1078
aF3.45
aF0.0994
aF0.1202
aF656.5
aF5.5371
aa(lp1079
F60.084
aF20.535
aS'A4c'
p1080
aF3.45
aF0.0994
aF0.1202
aF656.5
aF11.0739
aa(lp1081
F18.496
aF29.013
aS'A4c'
p1082
aF3.45
aF0.1491
aF0.1802
aF656.5
aF0.2769
aa(lp1083
F21.465
aF28.851
aS'A4c'
p1084
aF3.45
aF0.1491
aF0.1802
aF656.5
aF1.3841999999999999
aa(lp1085
F25.295
aF28.744
aS'A4c'
p1086
aF3.45
aF0.1491
aF0.1802
aF656.5
aF2.7600000000000002
aa(lp1087
F33.274
aF28.764
aS'A4c'
p1088
aF3.45
aF0.1491
aF0.1802
aF656.5
aF5.5371
aa(lp1089
F51.859
aF28.036
aS'A4c'
p1090
aF3.45
aF0.1491
aF0.1802
aF656.5
aF11.0739
aa(lp1091
F13.695
aF43.828
aS'A4c'
p1092
aF3.45
aF0.1988
aF0.2403
aF656.5
aF0.2769
aa(lp1093
F17.391
aF43.079
aS'A4c'
p1094
aF3.45
aF0.1988
aF0.2403
aF656.5
aF1.3841999999999999
aa(lp1095
F20.888
aF41.102
aS'A4c'
p1096
aF3.45
aF0.1988
aF0.2403
aF656.5
aF2.7600000000000002
aa(lp1097
F28.241
aF40.539
aS'A4c'
p1098
aF3.45
aF0.1988
aF0.2403
aF656.5
aF5.5371
aa(lp1099
F45.363
aF38.846
aS'A4c'
p1100
aF3.45
aF0.1988
aF0.2403
aF656.5
aF11.0739
aa(lp1101
F8.617
aF89.395
aS'A4c'
p1102
aF3.45
aF0.2981
aF0.3605
aF656.5
aF0.2769
aa(lp1103
F10.317
aF86.606
aS'A4c'
p1104
aF3.45
aF0.2981
aF0.3605
aF656.5
aF1.3841999999999999
aa(lp1105
F13.932
aF83.568
aS'A4c'
p1106
aF3.45
aF0.2981
aF0.3605
aF656.5
aF2.7600000000000002
aa(lp1107
F21.228
aF78.643
aS'A4c'
p1108
aF3.45
aF0.2981
aF0.3605
aF656.5
aF5.5371
aa(lp1109
F35.212
aF69.89
aS'A4c'
p1110
aF3.45
aF0.2981
aF0.3605
aF656.5
aF11.0739
aa(lp1111
F5.371
aF135.361
aS'A4c'
p1112
aF3.45
aF0.3975
aF0.4806
aF656.5
aF0.2769
aa(lp1113
F6.572
aF131.714
aS'A4c'
p1114
aF3.45
aF0.3975
aF0.4806
aF656.5
aF1.3841999999999999
aa(lp1115
F9.466
aF127.612
aS'A4c'
p1116
aF3.45
aF0.3975
aF0.4806
aF656.5
aF2.7600000000000002
aa(lp1117
F15.209
aF120.667
aS'A4c'
p1118
aF3.45
aF0.3975
aF0.4806
aF656.5
aF5.5371
aa(lp1119
F28.885
aF110.545
aS'A4c'
p1120
aF3.45
aF0.3975
aF0.4806
aF656.5
aF11.0739
aa(lp1121
F0.0
aF25.783
aS'A4c'
p1122
aF0.006
aF0.0
aF0.0
aF1196.5
aF0.2769
aa(lp1123
F0.0
aF10.737
aS'A4c'
p1124
aF0.006
aF0.0
aF0.0
aF1196.5
aF1.3841999999999999
aa(lp1125
F0.0
aF8.829
aS'A4c'
p1126
aF0.006
aF0.0
aF0.0
aF1196.5
aF2.7600000000000002
aa(lp1127
F4.128
aF5.991
aS'A4c'
p1128
aF0.006
aF0.0
aF0.0
aF1196.5
aF5.5371
aa(lp1129
F23.177
aF7.321
aS'A4c'
p1130
aF0.006
aF0.0
aF0.0
aF1196.5
aF11.0739
aa(lp1131
F0.0
aF73.107
aS'A4c'
p1132
aF0.006
aF0.0497
aF0.0601
aF1196.5
aF0.2769
aa(lp1133
F0.0
aF64.31
aS'A4c'
p1134
aF0.006
aF0.0497
aF0.0601
aF1196.5
aF1.3841999999999999
aa(lp1135
F0.0
aF53.417
aS'A4c'
p1136
aF0.006
aF0.0497
aF0.0601
aF1196.5
aF2.7600000000000002
aa(lp1137
F0.0
aF32.607
aS'A4c'
p1138
aF0.006
aF0.0497
aF0.0601
aF1196.5
aF5.5371
aa(lp1139
F6.148
aF25.429
aS'A4c'
p1140
aF0.006
aF0.0497
aF0.0601
aF1196.5
aF11.0739
aa(lp1141
F0.0
aF120.745
aS'A4c'
p1142
aF0.006
aF0.0994
aF0.1202
aF1196.5
aF0.2769
aa(lp1143
F0.0
aF111.983
aS'A4c'
p1144
aF0.006
aF0.0994
aF0.1202
aF1196.5
aF1.3841999999999999
aa(lp1145
F0.0
aF100.98
aS'A4c'
p1146
aF0.006
aF0.0994
aF0.1202
aF1196.5
aF2.7600000000000002
aa(lp1147
F0.0
aF80.753
aS'A4c'
p1148
aF0.006
aF0.0994
aF0.1202
aF1196.5
aF5.5371
aa(lp1149
F0.0
aF52.981
aS'A4c'
p1150
aF0.006
aF0.0994
aF0.1202
aF1196.5
aF11.0739
aa(lp1151
F0.0
aF168.376
aS'A4c'
p1152
aF0.006
aF0.1491
aF0.1802
aF1196.5
aF0.2769
aa(lp1153
F0.0
aF159.632
aS'A4c'
p1154
aF0.006
aF0.1491
aF0.1802
aF1196.5
aF1.3841999999999999
aa(lp1155
F0.0
aF148.637
aS'A4c'
p1156
aF0.006
aF0.1491
aF0.1802
aF1196.5
aF2.7600000000000002
aa(lp1157
F0.0
aF127.375
aS'A4c'
p1158
aF0.006
aF0.1491
aF0.1802
aF1196.5
aF5.5371
aa(lp1159
F0.0
aF96.108
aS'A4c'
p1160
aF0.006
aF0.1491
aF0.1802
aF1196.5
aF11.0739
aa(lp1161
F0.0
aF216.007
aS'A4c'
p1162
aF0.006
aF0.1988
aF0.2403
aF1196.5
aF0.2769
aa(lp1163
F0.0
aF207.271
aS'A4c'
p1164
aF0.006
aF0.1988
aF0.2403
aF1196.5
aF1.3841999999999999
aa(lp1165
F0.0
aF196.304
aS'A4c'
p1166
aF0.006
aF0.1988
aF0.2403
aF1196.5
aF2.7600000000000002
aa(lp1167
F0.0
aF174.646
aS'A4c'
p1168
aF0.006
aF0.1988
aF0.2403
aF1196.5
aF5.5371
aa(lp1169
F0.0
aF139.067
aS'A4c'
p1170
aF0.006
aF0.1988
aF0.2403
aF1196.5
aF11.0739
aa(lp1171
F0.0
aF311.26
aS'A4c'
p1172
aF0.006
aF0.2981
aF0.3605
aF1196.5
aF0.2769
aa(lp1173
F0.0
aF302.533
aS'A4c'
p1174
aF0.006
aF0.2981
aF0.3605
aF1196.5
aF1.3841999999999999
aa(lp1175
F0.0
aF291.603
aS'A4c'
p1176
aF0.006
aF0.2981
aF0.3605
aF1196.5
aF2.7600000000000002
aa(lp1177
F0.0
aF269.728
aS'A4c'
p1178
aF0.006
aF0.2981
aF0.3605
aF1196.5
aF5.5371
aa(lp1179
F0.0
aF229.764
aS'A4c'
p1180
aF0.006
aF0.2981
aF0.3605
aF1196.5
aF11.0739
aa(lp1181
F0.0
aF392.271
aS'A4c'
p1182
aF0.006
aF0.3975
aF0.4806
aF1196.5
aF0.2769
aa(lp1183
F0.0
aF383.547
aS'A4c'
p1184
aF0.006
aF0.3975
aF0.4806
aF1196.5
aF1.3841999999999999
aa(lp1185
F0.0
aF372.632
aS'A4c'
p1186
aF0.006
aF0.3975
aF0.4806
aF1196.5
aF2.7600000000000002
aa(lp1187
F0.0
aF350.743
aS'A4c'
p1188
aF0.006
aF0.3975
aF0.4806
aF1196.5
aF5.5371
aa(lp1189
F0.0
aF308.97
aS'A4c'
p1190
aF0.006
aF0.3975
aF0.4806
aF1196.5
aF11.0739
aa(lp1191
F0.0
aF4.682
aS'A4c'
p1192
aF0.5
aF0.0
aF0.0
aF1196.5
aF0.2769
aa(lp1193
F2.531
aF4.926
aS'A4c'
p1194
aF0.5
aF0.0
aF0.0
aF1196.5
aF1.3841999999999999
aa(lp1195
F7.996
aF5.223
aS'A4c'
p1196
aF0.5
aF0.0
aF0.0
aF1196.5
aF2.7600000000000002
aa(lp1197
F18.368
aF5.84
aS'A4c'
p1198
aF0.5
aF0.0
aF0.0
aF1196.5
aF5.5371
aa(lp1199
F36.897
aF7.314
aS'A4c'
p1200
aF0.5
aF0.0
aF0.0
aF1196.5
aF11.0739
aa(lp1201
F0.0
aF35.114
aS'A4c'
p1202
aF0.5
aF0.0497
aF0.0601
aF1196.5
aF0.2769
aa(lp1203
F0.0
aF28.808
aS'A4c'
p1204
aF0.5
aF0.0497
aF0.0601
aF1196.5
aF1.3841999999999999
aa(lp1205
F0.0
aF23.89
aS'A4c'
p1206
aF0.5
aF0.0497
aF0.0601
aF1196.5
aF2.7600000000000002
aa(lp1207
F1.599
aF22.336
aS'A4c'
p1208
aF0.5
aF0.0497
aF0.0601
aF1196.5
aF5.5371
aa(lp1209
F19.491
aF20.404
aS'A4c'
p1210
aF0.5
aF0.0497
aF0.0601
aF1196.5
aF11.0739
aa(lp1211
F0.0
aF81.736
aS'A4c'
p1212
aF0.5
aF0.0994
aF0.1202
aF1196.5
aF0.2769
aa(lp1213
F0.0
aF73.377
aS'A4c'
p1214
aF0.5
aF0.0994
aF0.1202
aF1196.5
aF1.3841999999999999
aa(lp1215
F0.0
aF64.304
aS'A4c'
p1216
aF0.5
aF0.0994
aF0.1202
aF1196.5
aF2.7600000000000002
aa(lp1217
F0.0
aF48.187
aS'A4c'
p1218
aF0.5
aF0.0994
aF0.1202
aF1196.5
aF5.5371
aa(lp1219
F7.544
aF38.038
aS'A4c'
p1220
aF0.5
aF0.0994
aF0.1202
aF1196.5
aF11.0739
aa(lp1221
F0.0
aF125.236
aS'A4c'
p1222
aF0.5
aF0.1491
aF0.1802
aF1196.5
aF0.2769
aa(lp1223
F0.0
aF116.565
aS'A4c'
p1224
aF0.5
aF0.1491
aF0.1802
aF1196.5
aF1.3841999999999999
aa(lp1225
F0.0
aF106.354
aS'A4c'
p1226
aF0.5
aF0.1491
aF0.1802
aF1196.5
aF2.7600000000000002
aa(lp1227
F0.0
aF89.593
aS'A4c'
p1228
aF0.5
aF0.1491
aF0.1802
aF1196.5
aF5.5371
aa(lp1229
F1.801
aF66.909
aS'A4c'
p1230
aF0.5
aF0.1491
aF0.1802
aF1196.5
aF11.0739
aa(lp1231
F0.0
aF168.787
aS'A4c'
p1232
aF0.5
aF0.1988
aF0.2403
aF1196.5
aF0.2769
aa(lp1233
F0.0
aF160.035
aS'A4c'
p1234
aF0.5
aF0.1988
aF0.2403
aF1196.5
aF1.3841999999999999
aa(lp1235
F0.0
aF149.383
aS'A4c'
p1236
aF0.5
aF0.1988
aF0.2403
aF1196.5
aF2.7600000000000002
aa(lp1237
F0.0
aF130.558
aS'A4c'
p1238
aF0.5
aF0.1988
aF0.2403
aF1196.5
aF5.5371
aa(lp1239
F0.0
aF105.255
aS'A4c'
p1240
aF0.5
aF0.1988
aF0.2403
aF1196.5
aF11.0739
aa(lp1241
F0.0
aF255.868
aS'A4c'
p1242
aF0.5
aF0.2981
aF0.3605
aF1196.5
aF0.2769
aa(lp1243
F0.0
aF247.109
aS'A4c'
p1244
aF0.5
aF0.2981
aF0.3605
aF1196.5
aF1.3841999999999999
aa(lp1245
F0.0
aF236.215
aS'A4c'
p1246
aF0.5
aF0.2981
aF0.3605
aF1196.5
aF2.7600000000000002
aa(lp1247
F0.0
aF215.426
aS'A4c'
p1248
aF0.5
aF0.2981
aF0.3605
aF1196.5
aF5.5371
aa(lp1249
F0.0
aF182.271
aS'A4c'
p1250
aF0.5
aF0.2981
aF0.3605
aF1196.5
aF11.0739
aa(lp1251
F0.0
aF332.303
aS'A4c'
p1252
aF0.5
aF0.3975
aF0.4806
aF1196.5
aF0.2769
aa(lp1253
F0.0
aF323.564
aS'A4c'
p1254
aF0.5
aF0.3975
aF0.4806
aF1196.5
aF1.3841999999999999
aa(lp1255
F0.0
aF312.636
aS'A4c'
p1256
aF0.5
aF0.3975
aF0.4806
aF1196.5
aF2.7600000000000002
aa(lp1257
F0.0
aF291.232
aS'A4c'
p1258
aF0.5
aF0.3975
aF0.4806
aF1196.5
aF5.5371
aa(lp1259
F0.0
aF254.131
aS'A4c'
p1260
aF0.5
aF0.3975
aF0.4806
aF1196.5
aF11.0739
aa(lp1261
F4.96
aF4.615
aS'A4c'
p1262
aF0.75
aF0.0
aF0.0
aF1196.5
aF0.2769
aa(lp1263
F8.916
aF4.854
aS'A4c'
p1264
aF0.75
aF0.0
aF0.0
aF1196.5
aF1.3841999999999999
aa(lp1265
F13.904
aF5.154
aS'A4c'
p1266
aF0.75
aF0.0
aF0.0
aF1196.5
aF2.7600000000000002
aa(lp1267
F24.404
aF5.803
aS'A4c'
p1268
aF0.75
aF0.0
aF0.0
aF1196.5
aF5.5371
aa(lp1269
F44.408
aF7.347
aS'A4c'
p1270
aF0.75
aF0.0
aF0.0
aF1196.5
aF11.0739
aa(lp1271
F0.0
aF24.572
aS'A4c'
p1272
aF0.75
aF0.0497
aF0.0601
aF1196.5
aF0.2769
aa(lp1273
F0.0
aF22.152
aS'A4c'
p1274
aF0.75
aF0.0497
aF0.0601
aF1196.5
aF1.3841999999999999
aa(lp1275
F0.0
aF21.309
aS'A4c'
p1276
aF0.75
aF0.0497
aF0.0601
aF1196.5
aF2.7600000000000002
aa(lp1277
F8.276
aF19.072
aS'A4c'
p1278
aF0.75
aF0.0497
aF0.0601
aF1196.5
aF5.5371
aa(lp1279
F25.565
aF19.156
aS'A4c'
p1280
aF0.75
aF0.0497
aF0.0601
aF1196.5
aF11.0739
aa(lp1281
F0.0
aF65.625
aS'A4c'
p1282
aF0.75
aF0.0994
aF0.1202
aF1196.5
aF0.2769
aa(lp1283
F0.0
aF57.169
aS'A4c'
p1284
aF0.75
aF0.0994
aF0.1202
aF1196.5
aF1.3841999999999999
aa(lp1285
F0.0
aF48.9
aS'A4c'
p1286
aF0.75
aF0.0994
aF0.1202
aF1196.5
aF2.7600000000000002
aa(lp1287
F0.0
aF41.256
aS'A4c'
p1288
aF0.75
aF0.0994
aF0.1202
aF1196.5
aF5.5371
aa(lp1289
F12.624
aF35.2
aS'A4c'
p1290
aF0.75
aF0.0994
aF0.1202
aF1196.5
aF11.0739
aa(lp1291
F0.0
aF106.661
aS'A4c'
p1292
aF0.75
aF0.1491
aF0.1802
aF1196.5
aF0.2769
aa(lp1293
F0.0
aF98.607
aS'A4c'
p1294
aF0.75
aF0.1491
aF0.1802
aF1196.5
aF1.3841999999999999
aa(lp1295
F0.0
aF89.738
aS'A4c'
p1296
aF0.75
aF0.1491
aF0.1802
aF1196.5
aF2.7600000000000002
aa(lp1297
F0.0
aF76.27
aS'A4c'
p1298
aF0.75
aF0.1491
aF0.1802
aF1196.5
aF5.5371
aa(lp1299
F6.505
aF57.66
aS'A4c'
p1300
aF0.75
aF0.1491
aF0.1802
aF1196.5
aF11.0739
aa(lp1301
F0.0
aF148.23
aS'A4c'
p1302
aF0.75
aF0.1988
aF0.2403
aF1196.5
aF0.2769
aa(lp1303
F0.0
aF139.763
aS'A4c'
p1304
aF0.75
aF0.1988
aF0.2403
aF1196.5
aF1.3841999999999999
aa(lp1305
F0.0
aF129.908
aS'A4c'
p1306
aF0.75
aF0.1988
aF0.2403
aF1196.5
aF2.7600000000000002
aa(lp1307
F0.0
aF113.492
aS'A4c'
p1308
aF0.75
aF0.1988
aF0.2403
aF1196.5
aF5.5371
aa(lp1309
F1.791
aF93.128
aS'A4c'
p1310
aF0.75
aF0.1988
aF0.2403
aF1196.5
aF11.0739
aa(lp1311
F0.0
aF231.648
aS'A4c'
p1312
aF0.75
aF0.2981
aF0.3605
aF1196.5
aF0.2769
aa(lp1313
F0.0
aF222.948
aS'A4c'
p1314
aF0.75
aF0.2981
aF0.3605
aF1196.5
aF1.3841999999999999
aa(lp1315
F0.0
aF212.324
aS'A4c'
p1316
aF0.75
aF0.2981
aF0.3605
aF1196.5
aF2.7600000000000002
aa(lp1317
F0.0
aF192.929
aS'A4c'
p1318
aF0.75
aF0.2981
aF0.3605
aF1196.5
aF5.5371
aa(lp1319
F0.0
aF163.78
aS'A4c'
p1320
aF0.75
aF0.2981
aF0.3605
aF1196.5
aF11.0739
aa(lp1321
F0.0
aF306.1
aS'A4c'
p1322
aF0.75
aF0.3975
aF0.4806
aF1196.5
aF0.2769
aa(lp1323
F0.0
aF297.366
aS'A4c'
p1324
aF0.75
aF0.3975
aF0.4806
aF1196.5
aF1.3841999999999999
aa(lp1325
F0.0
aF286.544
aS'A4c'
p1326
aF0.75
aF0.3975
aF0.4806
aF1196.5
aF2.7600000000000002
aa(lp1327
F0.0
aF265.864
aS'A4c'
p1328
aF0.75
aF0.3975
aF0.4806
aF1196.5
aF5.5371
aa(lp1329
F0.0
aF231.9
aS'A4c'
p1330
aF0.75
aF0.3975
aF0.4806
aF1196.5
aF11.0739
aa(lp1331
F10.186
aF4.554
aS'A4c'
p1332
aF1.0
aF0.0
aF0.0
aF1196.5
aF0.2769
aa(lp1333
F15.996
aF4.793
aS'A4c'
p1334
aF1.0
aF0.0
aF0.0
aF1196.5
aF1.3841999999999999
aa(lp1335
F20.659
aF5.105
aS'A4c'
p1336
aF1.0
aF0.0
aF0.0
aF1196.5
aF2.7600000000000002
aa(lp1337
F29.917
aF5.79
aS'A4c'
p1338
aF1.0
aF0.0
aF0.0
aF1196.5
aF5.5371
aa(lp1339
F50.259
aF7.397
aS'A4c'
p1340
aF1.0
aF0.0
aF0.0
aF1196.5
aF11.0739
aa(lp1341
F0.0
aF20.478
aS'A4c'
p1342
aF1.0
aF0.0497
aF0.0601
aF1196.5
aF0.2769
aa(lp1343
F0.0
aF19.816
aS'A4c'
p1344
aF1.0
aF0.0497
aF0.0601
aF1196.5
aF1.3841999999999999
aa(lp1345
F5.119
aF17.959
aS'A4c'
p1346
aF1.0
aF0.0497
aF0.0601
aF1196.5
aF2.7600000000000002
aa(lp1347
F12.336
aF17.717
aS'A4c'
p1348
aF1.0
aF0.0497
aF0.0601
aF1196.5
aF5.5371
aa(lp1349
F31.317
aF18.133
aS'A4c'
p1350
aF1.0
aF0.0497
aF0.0601
aF1196.5
aF11.0739
aa(lp1351
F0.0
aF48.964
aS'A4c'
p1352
aF1.0
aF0.0994
aF0.1202
aF1196.5
aF0.2769
aa(lp1353
F0.0
aF44.064
aS'A4c'
p1354
aF1.0
aF0.0994
aF0.1202
aF1196.5
aF1.3841999999999999
aa(lp1355
F0.0
aF40.291
aS'A4c'
p1356
aF1.0
aF0.0994
aF0.1202
aF1196.5
aF2.7600000000000002
aa(lp1357
F4.6
aF34.44
aS'A4c'
p1358
aF1.0
aF0.0994
aF0.1202
aF1196.5
aF5.5371
aa(lp1359
F18.016
aF32.759
aS'A4c'
p1360
aF1.0
aF0.0994
aF0.1202
aF1196.5
aF11.0739
aa(lp1361
F0.0
aF90.605
aS'A4c'
p1362
aF1.0
aF0.1491
aF0.1802
aF1196.5
aF0.2769
aa(lp1363
F0.0
aF83.681
aS'A4c'
p1364
aF1.0
aF0.1491
aF0.1802
aF1196.5
aF1.3841999999999999
aa(lp1365
F0.0
aF76.37
aS'A4c'
p1366
aF1.0
aF0.1491
aF0.1802
aF1196.5
aF2.7600000000000002
aa(lp1367
F0.0
aF62.227
aS'A4c'
p1368
aF1.0
aF0.1491
aF0.1802
aF1196.5
aF5.5371
aa(lp1369
F9.234
aF52.935
aS'A4c'
p1370
aF1.0
aF0.1491
aF0.1802
aF1196.5
aF11.0739
aa(lp1371
F0.0
aF129.81
aS'A4c'
p1372
aF1.0
aF0.1988
aF0.2403
aF1196.5
aF0.2769
aa(lp1373
F0.0
aF122.028
aS'A4c'
p1374
aF1.0
aF0.1988
aF0.2403
aF1196.5
aF1.3841999999999999
aa(lp1375
F0.0
aF113.371
aS'A4c'
p1376
aF1.0
aF0.1988
aF0.2403
aF1196.5
aF2.7600000000000002
aa(lp1377
F0.0
aF99.638
aS'A4c'
p1378
aF1.0
aF0.1988
aF0.2403
aF1196.5
aF5.5371
aa(lp1379
F6.102
aF83.264
aS'A4c'
p1380
aF1.0
aF0.1988
aF0.2403
aF1196.5
aF11.0739
aa(lp1381
F0.0
aF209.502
aS'A4c'
p1382
aF1.0
aF0.2981
aF0.3605
aF1196.5
aF0.2769
aa(lp1383
F0.0
aF201.041
aS'A4c'
p1384
aF1.0
aF0.2981
aF0.3605
aF1196.5
aF1.3841999999999999
aa(lp1385
F0.0
aF190.97
aS'A4c'
p1386
aF1.0
aF0.2981
aF0.3605
aF1196.5
aF2.7600000000000002
aa(lp1387
F0.0
aF173.347
aS'A4c'
p1388
aF1.0
aF0.2981
aF0.3605
aF1196.5
aF5.5371
aa(lp1389
F1.319
aF148.145
aS'A4c'
p1390
aF1.0
aF0.2981
aF0.3605
aF1196.5
aF11.0739
aa(lp1391
F0.0
aF282.045
aS'A4c'
p1392
aF1.0
aF0.3975
aF0.4806
aF1196.5
aF0.2769
aa(lp1393
F0.0
aF273.401
aS'A4c'
p1394
aF1.0
aF0.3975
aF0.4806
aF1196.5
aF1.3841999999999999
aa(lp1395
F0.0
aF262.853
aS'A4c'
p1396
aF1.0
aF0.3975
aF0.4806
aF1196.5
aF2.7600000000000002
aa(lp1397
F0.0
aF243.342
aS'A4c'
p1398
aF1.0
aF0.3975
aF0.4806
aF1196.5
aF5.5371
aa(lp1399
F0.0
aF212.644
aS'A4c'
p1400
aF1.0
aF0.3975
aF0.4806
aF1196.5
aF11.0739
aa(lp1401
F17.394
aF4.5
aS'A4c'
p1402
aF1.25
aF0.0
aF0.0
aF1196.5
aF0.2769
aa(lp1403
F21.113
aF4.747
aS'A4c'
p1404
aF1.25
aF0.0
aF0.0
aF1196.5
aF1.3841999999999999
aa(lp1405
F25.744
aF5.075
aS'A4c'
p1406
aF1.25
aF0.0
aF0.0
aF1196.5
aF2.7600000000000002
aa(lp1407
F34.991
aF5.799
aS'A4c'
p1408
aF1.25
aF0.0
aF0.0
aF1196.5
aF5.5371
aa(lp1409
F55.66
aF7.459
aS'A4c'
p1410
aF1.25
aF0.0
aF0.0
aF1196.5
aF11.0739
aa(lp1411
F1.364
aF16.985
aS'A4c'
p1412
aF1.25
aF0.0497
aF0.0601
aF1196.5
aF0.2769
aa(lp1413
F5.469
aF16.822
aS'A4c'
p1414
aF1.25
aF0.0497
aF0.0601
aF1196.5
aF1.3841999999999999
aa(lp1415
F9.567
aF16.66
aS'A4c'
p1416
aF1.25
aF0.0497
aF0.0601
aF1196.5
aF2.7600000000000002
aa(lp1417
F18.876
aF16.58
aS'A4c'
p1418
aF1.25
aF0.0497
aF0.0601
aF1196.5
aF5.5371
aa(lp1419
F36.72
aF16.033
aS'A4c'
p1420
aF1.25
aF0.0497
aF0.0601
aF1196.5
aF11.0739
aa(lp1421
F0.0
aF39.612
aS'A4c'
p1422
aF1.25
aF0.0994
aF0.1202
aF1196.5
aF0.2769
aa(lp1423
F0.0
aF37.84
aS'A4c'
p1424
aF1.25
aF0.0994
aF0.1202
aF1196.5
aF1.3841999999999999
aa(lp1425
F1.255
aF34.693
aS'A4c'
p1426
aF1.25
aF0.0994
aF0.1202
aF1196.5
aF2.7600000000000002
aa(lp1427
F7.209
aF31.879
aS'A4c'
p1428
aF1.25
aF0.0994
aF0.1202
aF1196.5
aF5.5371
aa(lp1429
F24.155
aF30.695
aS'A4c'
p1430
aF1.25
aF0.0994
aF0.1202
aF1196.5
aF11.0739
aa(lp1431
F0.0
aF77.332
aS'A4c'
p1432
aF1.25
aF0.1491
aF0.1802
aF1196.5
aF0.2769
aa(lp1433
F0.0
aF71.637
aS'A4c'
p1434
aF1.25
aF0.1491
aF0.1802
aF1196.5
aF1.3841999999999999
aa(lp1435
F0.0
aF63.235
aS'A4c'
p1436
aF1.25
aF0.1491
aF0.1802
aF1196.5
aF2.7600000000000002
aa(lp1437
F1.59
aF53.535
aS'A4c'
p1438
aF1.25
aF0.1491
aF0.1802
aF1196.5
aF5.5371
aa(lp1439
F13.955
aF47.66
aS'A4c'
p1440
aF1.25
aF0.1491
aF0.1802
aF1196.5
aF11.0739
aa(lp1441
F0.0
aF113.831
aS'A4c'
p1442
aF1.25
aF0.1988
aF0.2403
aF1196.5
aF0.2769
aa(lp1443
F0.0
aF107.011
aS'A4c'
p1444
aF1.25
aF0.1988
aF0.2403
aF1196.5
aF1.3841999999999999
aa(lp1445
F0.0
aF99.606
aS'A4c'
p1446
aF1.25
aF0.1988
aF0.2403
aF1196.5
aF2.7600000000000002
aa(lp1447
F0.0
aF88.346
aS'A4c'
p1448
aF1.25
aF0.1988
aF0.2403
aF1196.5
aF5.5371
aa(lp1449
F8.523
aF70.064
aS'A4c'
p1450
aF1.25
aF0.1988
aF0.2403
aF1196.5
aF11.0739
aa(lp1451
F0.0
aF189.428
aS'A4c'
p1452
aF1.25
aF0.2981
aF0.3605
aF1196.5
aF0.2769
aa(lp1453
F0.0
aF181.409
aS'A4c'
p1454
aF1.25
aF0.2981
aF0.3605
aF1196.5
aF1.3841999999999999
aa(lp1455
F0.0
aF172.187
aS'A4c'
p1456
aF1.25
aF0.2981
aF0.3605
aF1196.5
aF2.7600000000000002
aa(lp1457
F0.0
aF156.504
aS'A4c'
p1458
aF1.25
aF0.2981
aF0.3605
aF1196.5
aF5.5371
aa(lp1459
F1.966
aF134.888
aS'A4c'
p1460
aF1.25
aF0.2981
aF0.3605
aF1196.5
aF11.0739
aa(lp1461
F0.0
aF260.003
aS'A4c'
p1462
aF1.25
aF0.3975
aF0.4806
aF1196.5
aF0.2769
aa(lp1463
F0.0
aF251.589
aS'A4c'
p1464
aF1.25
aF0.3975
aF0.4806
aF1196.5
aF1.3841999999999999
aa(lp1465
F0.0
aF241.491
aS'A4c'
p1466
aF1.25
aF0.3975
aF0.4806
aF1196.5
aF2.7600000000000002
aa(lp1467
F0.0
aF223.433
aS'A4c'
p1468
aF1.25
aF0.3975
aF0.4806
aF1196.5
aF5.5371
aa(lp1469
F0.0
aF195.971
aS'A4c'
p1470
aF1.25
aF0.3975
aF0.4806
aF1196.5
aF11.0739
aa(lp1471
F22.11
aF4.461
aS'A4c'
p1472
aF1.5
aF0.0
aF0.0
aF1196.5
aF0.2769
aa(lp1473
F25.814
aF4.723
aS'A4c'
p1474
aF1.5
aF0.0
aF0.0
aF1196.5
aF1.3841999999999999
aa(lp1475
F30.437
aF5.069
aS'A4c'
p1476
aF1.5
aF0.0
aF0.0
aF1196.5
aF2.7600000000000002
aa(lp1477
F41.17
aF5.825
aS'A4c'
p1478
aF1.5
aF0.0
aF0.0
aF1196.5
aF5.5371
aa(lp1479
F60.659
aF7.528
aS'A4c'
p1480
aF1.5
aF0.0
aF0.0
aF1196.5
aF11.0739
aa(lp1481
F6.127
aF15.759
aS'A4c'
p1482
aF1.5
aF0.0497
aF0.0601
aF1196.5
aF0.2769
aa(lp1483
F9.818
aF15.628
aS'A4c'
p1484
aF1.5
aF0.0497
aF0.0601
aF1196.5
aF1.3841999999999999
aa(lp1485
F13.11
aF15.542
aS'A4c'
p1486
aF1.5
aF0.0497
aF0.0601
aF1196.5
aF2.7600000000000002
aa(lp1487
F23.723
aF14.347
aS'A4c'
p1488
aF1.5
aF0.0497
aF0.0601
aF1196.5
aF5.5371
aa(lp1489
F41.798
aF15.554
aS'A4c'
p1490
aF1.5
aF0.0497
aF0.0601
aF1196.5
aF11.0739
aa(lp1491
F0.0
aF35.366
aS'A4c'
p1492
aF1.5
aF0.0994
aF0.1202
aF1196.5
aF0.2769
aa(lp1493
F1.297
aF31.383
aS'A4c'
p1494
aF1.5
aF0.0994
aF0.1202
aF1196.5
aF1.3841999999999999
aa(lp1495
F5.203
aF30.68
aS'A4c'
p1496
aF1.5
aF0.0994
aF0.1202
aF1196.5
aF2.7600000000000002
aa(lp1497
F11.651
aF29.655
aS'A4c'
p1498
aF1.5
aF0.0994
aF0.1202
aF1196.5
aF5.5371
aa(lp1499
F29.138
aF27.66
aS'A4c'
p1500
aF1.5
aF0.0994
aF0.1202
aF1196.5
aF11.0739
aa(lp1501
F0.0
aF66.654
aS'A4c'
p1502
aF1.5
aF0.1491
aF0.1802
aF1196.5
aF0.2769
aa(lp1503
F0.0
aF58.282
aS'A4c'
p1504
aF1.5
aF0.1491
aF0.1802
aF1196.5
aF1.3841999999999999
aa(lp1505
F0.0
aF52.41
aS'A4c'
p1506
aF1.5
aF0.1491
aF0.1802
aF1196.5
aF2.7600000000000002
aa(lp1507
F5.798
aF49.127
aS'A4c'
p1508
aF1.5
aF0.1491
aF0.1802
aF1196.5
aF5.5371
aa(lp1509
F18.92
aF44.662
aS'A4c'
p1510
aF1.5
aF0.1491
aF0.1802
aF1196.5
aF11.0739
aa(lp1511
F0.0
aF100.295
aS'A4c'
p1512
aF1.5
aF0.1988
aF0.2403
aF1196.5
aF0.2769
aa(lp1513
F0.0
aF94.456
aS'A4c'
p1514
aF1.5
aF0.1988
aF0.2403
aF1196.5
aF1.3841999999999999
aa(lp1515
F0.0
aF88.317
aS'A4c'
p1516
aF1.5
aF0.1988
aF0.2403
aF1196.5
aF2.7600000000000002
aa(lp1517
F1.508
aF79.122
aS'A4c'
p1518
aF1.5
aF0.1988
aF0.2403
aF1196.5
aF5.5371
aa(lp1519
F12.493
aF63.706
aS'A4c'
p1520
aF1.5
aF0.1988
aF0.2403
aF1196.5
aF11.0739
aa(lp1521
F0.0
aF171.45
aS'A4c'
p1522
aF1.5
aF0.2981
aF0.3605
aF1196.5
aF0.2769
aa(lp1523
F0.0
aF164.144
aS'A4c'
p1524
aF1.5
aF0.2981
aF0.3605
aF1196.5
aF1.3841999999999999
aa(lp1525
F0.0
aF155.857
aS'A4c'
p1526
aF1.5
aF0.2981
aF0.3605
aF1196.5
aF2.7600000000000002
aa(lp1527
F0.0
aF142.122
aS'A4c'
p1528
aF1.5
aF0.2981
aF0.3605
aF1196.5
aF5.5371
aa(lp1529
F6.129
aF123.528
aS'A4c'
p1530
aF1.5
aF0.2981
aF0.3605
aF1196.5
aF11.0739
aa(lp1531
F0.0
aF239.908
aS'A4c'
p1532
aF1.5
aF0.3975
aF0.4806
aF1196.5
aF0.2769
aa(lp1533
F0.0
aF231.846
aS'A4c'
p1534
aF1.5
aF0.3975
aF0.4806
aF1196.5
aF1.3841999999999999
aa(lp1535
F0.0
aF222.419
aS'A4c'
p1536
aF1.5
aF0.3975
aF0.4806
aF1196.5
aF2.7600000000000002
aa(lp1537
F0.0
aF205.936
aS'A4c'
p1538
aF1.5
aF0.3975
aF0.4806
aF1196.5
aF5.5371
aa(lp1539
F1.673
aF181.523
aS'A4c'
p1540
aF1.5
aF0.3975
aF0.4806
aF1196.5
aF11.0739
aa(lp1541
F35.67
aF4.45
aS'A4c'
p1542
aF2.25
aF0.0
aF0.0
aF1196.5
aF0.2769
aa(lp1543
F39.552
aF4.747
aS'A4c'
p1544
aF2.25
aF0.0
aF0.0
aF1196.5
aF1.3841999999999999
aa(lp1545
F44.412
aF5.136
aS'A4c'
p1546
aF2.25
aF0.0
aF0.0
aF1196.5
aF2.7600000000000002
aa(lp1547
F54.144
aF5.965
aS'A4c'
p1548
aF2.25
aF0.0
aF0.0
aF1196.5
aF5.5371
aa(lp1549
F73.651
aF7.762
aS'A4c'
p1550
aF2.25
aF0.0
aF0.0
aF1196.5
aF11.0739
aa(lp1551
F19.793
aF11.981
aS'A4c'
p1552
aF2.25
aF0.0497
aF0.0601
aF1196.5
aF0.2769
aa(lp1553
F23.305
aF12.144
aS'A4c'
p1554
aF2.25
aF0.0497
aF0.0601
aF1196.5
aF1.3841999999999999
aa(lp1555
F27.775
aF12.383
aS'A4c'
p1556
aF2.25
aF0.0497
aF0.0601
aF1196.5
aF2.7600000000000002
aa(lp1557
F36.851
aF12.97
aS'A4c'
p1558
aF2.25
aF0.0497
aF0.0601
aF1196.5
aF5.5371
aa(lp1559
F57.118
aF14.487
aS'A4c'
p1560
aF2.25
aF0.0497
aF0.0601
aF1196.5
aF11.0739
aa(lp1561
F9.274
aF25.706
aS'A4c'
p1562
aF2.25
aF0.0994
aF0.1202
aF1196.5
aF0.2769
aa(lp1563
F11.662
aF25.333
aS'A4c'
p1564
aF2.25
aF0.0994
aF0.1202
aF1196.5
aF1.3841999999999999
aa(lp1565
F15.982
aF23.572
aS'A4c'
p1566
aF2.25
aF0.0994
aF0.1202
aF1196.5
aF2.7600000000000002
aa(lp1567
F25.288
aF23.602
aS'A4c'
p1568
aF2.25
aF0.0994
aF0.1202
aF1196.5
aF5.5371
aa(lp1569
F42.607
aF24.308
aS'A4c'
p1570
aF2.25
aF0.0994
aF0.1202
aF1196.5
aF11.0739
aa(lp1571
F4.346
aF43.562
aS'A4c'
p1572
aF2.25
aF0.1491
aF0.1802
aF1196.5
aF0.2769
aa(lp1573
F5.911
aF40.929
aS'A4c'
p1574
aF2.25
aF0.1491
aF0.1802
aF1196.5
aF1.3841999999999999
aa(lp1575
F9.267
aF40.055
aS'A4c'
p1576
aF2.25
aF0.1491
aF0.1802
aF1196.5
aF2.7600000000000002
aa(lp1577
F16.218
aF37.438
aS'A4c'
p1578
aF2.25
aF0.1491
aF0.1802
aF1196.5
aF5.5371
aa(lp1579
F32.962
aF36.742
aS'A4c'
p1580
aF2.25
aF0.1491
aF0.1802
aF1196.5
aF11.0739
aa(lp1581
F0.0
aF71.745
aS'A4c'
p1582
aF2.25
aF0.1988
aF0.2403
aF1196.5
aF0.2769
aa(lp1583
F1.504
aF65.437
aS'A4c'
p1584
aF2.25
aF0.1988
aF0.2403
aF1196.5
aF1.3841999999999999
aa(lp1585
F5.187
aF58.642
aS'A4c'
p1586
aF2.25
aF0.1988
aF0.2403
aF1196.5
aF2.7600000000000002
aa(lp1587
F10.473
aF55.89
aS'A4c'
p1588
aF2.25
aF0.1988
aF0.2403
aF1196.5
aF5.5371
aa(lp1589
F25.512
aF51.633
aS'A4c'
p1590
aF2.25
aF0.1988
aF0.2403
aF1196.5
aF11.0739
aa(lp1591
F0.0
aF129.838
aS'A4c'
p1592
aF2.25
aF0.2981
aF0.3605
aF1196.5
aF0.2769
aa(lp1593
F0.0
aF124.647
aS'A4c'
p1594
aF2.25
aF0.2981
aF0.3605
aF1196.5
aF1.3841999999999999
aa(lp1595
F0.0
aF118.982
aS'A4c'
p1596
aF2.25
aF0.2981
aF0.3605
aF1196.5
aF2.7600000000000002
aa(lp1597
F4.919
aF109.864
aS'A4c'
p1598
aF2.25
aF0.2981
aF0.3605
aF1196.5
aF5.5371
aa(lp1599
F14.022
aF97.72
aS'A4c'
p1600
aF2.25
aF0.2981
aF0.3605
aF1196.5
aF11.0739
aa(lp1601
F0.0
aF190.917
aS'A4c'
p1602
aF2.25
aF0.3975
aF0.4806
aF1196.5
aF0.2769
aa(lp1603
F0.0
aF184.594
aS'A4c'
p1604
aF2.25
aF0.3975
aF0.4806
aF1196.5
aF1.3841999999999999
aa(lp1605
F0.0
aF177.441
aS'A4c'
p1606
aF2.25
aF0.3975
aF0.4806
aF1196.5
aF2.7600000000000002
aa(lp1607
F1.284
aF165.319
aS'A4c'
p1608
aF2.25
aF0.3975
aF0.4806
aF1196.5
aF5.5371
aa(lp1609
F8.434
aF147.91
aS'A4c'
p1610
aF2.25
aF0.3975
aF0.4806
aF1196.5
aF11.0739
aa(lp1611
F50.489
aF4.574
aS'A4c'
p1612
aF3.45
aF0.0
aF0.0
aF1196.5
aF0.2769
aa(lp1613
F54.38
aF4.906
aS'A4c'
p1614
aF3.45
aF0.0
aF0.0
aF1196.5
aF1.3841999999999999
aa(lp1615
F59.25
aF5.335
aS'A4c'
p1616
aF3.45
aF0.0
aF0.0
aF1196.5
aF2.7600000000000002
aa(lp1617
F70.204
aF6.228
aS'A4c'
p1618
aF3.45
aF0.0
aF0.0
aF1196.5
aF5.5371
aa(lp1619
F90.299
aF8.11
aS'A4c'
p1620
aF3.45
aF0.0
aF0.0
aF1196.5
aF11.0739
aa(lp1621
F34.943
aF9.048
aS'A4c'
p1622
aF3.45
aF0.0497
aF0.0601
aF1196.5
aF0.2769
aa(lp1623
F39.849
aF9.333
aS'A4c'
p1624
aF3.45
aF0.0497
aF0.0601
aF1196.5
aF1.3841999999999999
aa(lp1625
F44.676
aF9.707
aS'A4c'
p1626
aF3.45
aF0.0497
aF0.0601
aF1196.5
aF2.7600000000000002
aa(lp1627
F54.38
aF10.497
aS'A4c'
p1628
aF3.45
aF0.0497
aF0.0601
aF1196.5
aF5.5371
aa(lp1629
F73.883
aF12.219
aS'A4c'
p1630
aF3.45
aF0.0497
aF0.0601
aF1196.5
aF11.0739
aa(lp1631
F24.605
aF18.978
aS'A4c'
p1632
aF3.45
aF0.0994
aF0.1202
aF1196.5
aF0.2769
aa(lp1633
F27.986
aF19.046
aS'A4c'
p1634
aF3.45
aF0.0994
aF0.1202
aF1196.5
aF1.3841999999999999
aa(lp1635
F32.295
aF19.188
aS'A4c'
p1636
aF3.45
aF0.0994
aF0.1202
aF1196.5
aF2.7600000000000002
aa(lp1637
F41.089
aF18.174
aS'A4c'
p1638
aF3.45
aF0.0994
aF0.1202
aF1196.5
aF5.5371
aa(lp1639
F61.081
aF19.655
aS'A4c'
p1640
aF3.45
aF0.0994
aF0.1202
aF1196.5
aF11.0739
aa(lp1641
F16.111
aF30.605
aS'A4c'
p1642
aF3.45
aF0.1491
aF0.1802
aF1196.5
aF0.2769
aa(lp1643
F20.278
aF30.35
aS'A4c'
p1644
aF3.45
aF0.1491
aF0.1802
aF1196.5
aF1.3841999999999999
aa(lp1645
F24.2
aF30.125
aS'A4c'
p1646
aF3.45
aF0.1491
aF0.1802
aF1196.5
aF2.7600000000000002
aa(lp1647
F32.351
aF29.931
aS'A4c'
p1648
aF3.45
aF0.1491
aF0.1802
aF1196.5
aF5.5371
aa(lp1649
F50.823
aF29.195
aS'A4c'
p1650
aF3.45
aF0.1491
aF0.1802
aF1196.5
aF11.0739
aa(lp1651
F10.811
aF44.481
aS'A4c'
p1652
aF3.45
aF0.1988
aF0.2403
aF1196.5
aF0.2769
aa(lp1653
F12.93
aF43.886
aS'A4c'
p1654
aF3.45
aF0.1988
aF0.2403
aF1196.5
aF1.3841999999999999
aa(lp1655
F17.16
aF43.286
aS'A4c'
p1656
aF3.45
aF0.1988
aF0.2403
aF1196.5
aF2.7600000000000002
aa(lp1657
F25.66
aF42.432
aS'A4c'
p1658
aF3.45
aF0.1988
aF0.2403
aF1196.5
aF5.5371
aa(lp1659
F41.675
aF40.544
aS'A4c'
p1660
aF3.45
aF0.1988
aF0.2403
aF1196.5
aF11.0739
aa(lp1661
F5.27
aF91.208
aS'A4c'
p1662
aF3.45
aF0.2981
aF0.3605
aF1196.5
aF0.2769
aa(lp1663
F6.582
aF88.195
aS'A4c'
p1664
aF3.45
aF0.2981
aF0.3605
aF1196.5
aF1.3841999999999999
aa(lp1665
F8.412
aF84.924
aS'A4c'
p1666
aF3.45
aF0.2981
aF0.3605
aF1196.5
aF2.7600000000000002
aa(lp1667
F15.712
aF78.446
aS'A4c'
p1668
aF3.45
aF0.2981
aF0.3605
aF1196.5
aF5.5371
aa(lp1669
F30.212
aF68.057
aS'A4c'
p1670
aF3.45
aF0.2981
aF0.3605
aF1196.5
aF11.0739
aa(lp1671
F1.335
aF142.159
aS'A4c'
p1672
aF3.45
aF0.3975
aF0.4806
aF1196.5
aF0.2769
aa(lp1673
F1.718
aF137.965
aS'A4c'
p1674
aF3.45
aF0.3975
aF0.4806
aF1196.5
aF1.3841999999999999
aa(lp1675
F5.333
aF133.282
aS'A4c'
p1676
aF3.45
aF0.3975
aF0.4806
aF1196.5
aF2.7600000000000002
aa(lp1677
F8.571
aF125.454
aS'A4c'
p1678
aF3.45
aF0.3975
aF0.4806
aF1196.5
aF5.5371
aa(lp1679
F22.118
aF114.177
aS'A4c'
p1680
aF3.45
aF0.3975
aF0.4806
aF1196.5
aF11.0739
aa(lp1681
F125.5446
aF10.3451
aS'A4c'
p1682
aF13.8
aF0.0
aF0.0
aF71.5
aF0.2769
aa(lp1683
F129.77404260416668
aF9.2548828125
ag1682
aF13.8
aF0.0
aF0.0
aF656.5
aF0.2769
aa(lp1684
F139.49793555555553
aF8.857458541666666
aS'A4c'
p1685
aF13.8
aF0.0
aF0.0
aF1196.5
aF0.2769
aa(lp1686
F129.63495409836065
aF10.774708196721312
ag1682
aF13.8
aF0.0
aF0.0
aF71.5
aF1.3841999999999999
aa(lp1687
F133.83493467326957
aF9.672546943306012
ag1682
aF13.8
aF0.0
aF0.0
aF656.5
aF1.3841999999999999
aa(lp1688
F143.53791658014572
aF9.265047077261688
ag1685
aF13.8
aF0.0
aF0.0
aF1196.5
aF1.3841999999999999
aa(lp1689
F135.08603882270498
aF11.307937070777855
aS'A4c'
p1690
aF13.8
aF0.0
aF0.0
aF71.5
aF2.7600000000000002
aa(lp1691
F138.95888144125203
aF10.193295282060266
ag1690
aF13.8
aF0.0
aF0.0
aF656.5
aF2.7600000000000002
aa(lp1692
F148.56013542416102
aF9.775144217277894
aS'A4c'
p1693
aF13.8
aF0.0
aF0.0
aF1196.5
aF2.7600000000000002
aa(lp1694
F146.1840595655221
aF12.384136299929922
ag1690
aF13.8
aF0.0
aF0.0
aF71.5
aF5.5371
aa(lp1695
F149.32188724816046
aF11.244908645760336
ag1690
aF13.8
aF0.0
aF0.0
aF656.5
aF5.5371
aa(lp1696
F158.69833075508058
aF10.805737783228217
ag1693
aF13.8
aF0.0
aF0.0
aF1196.5
aF5.5371
aa(lp1697
F166.906255186722
aF14.526609958506224
aS'A4c'
p1698
aF13.8
aF0.0
aF0.0
aF71.5
aF11.0739
aa(lp1699
F169.72853235217843
aF13.348831747060856
ag1698
aF13.8
aF0.0
aF0.0
aF656.5
aF11.0739
aa(lp1700
F178.9713525962425
aF12.878810209197788
aS'A4c'
p1701
aF13.8
aF0.0
aF0.0
aF1196.5
aF11.0739
aa(lp1702
F117.33734830188679
aF13.552031572327044
ag1682
aF13.8
aF0.0497
aF0.0601
aF71.5
aF0.2769
aa(lp1703
F121.32289636124216
aF11.559513164046122
ag1682
aF13.8
aF0.0497
aF0.0601
aF656.5
aF0.2769
aa(lp1704
F130.21810241815163
aF11.042812127533193
ag1685
aF13.8
aF0.0497
aF0.0601
aF1196.5
aF0.2769
aa(lp1705
F121.41635425920198
aF14.011901478502939
ag1682
aF13.8
aF0.0497
aF0.0601
aF71.5
aF1.3841999999999999
aa(lp1706
F125.38936530614123
aF11.984042657496191
ag1682
aF13.8
aF0.0497
aF0.0601
aF656.5
aF1.3841999999999999
aa(lp1707
F134.27111891926526
aF11.451257903103794
ag1685
aF13.8
aF0.0497
aF0.0601
aF1196.5
aF1.3841999999999999
aa(lp1708
F126.62578967248879
aF14.581456168326039
ag1690
aF13.8
aF0.0497
aF0.0601
aF71.5
aF2.7600000000000002
aa(lp1709
F130.47188506825427
aF12.51222298202824
ag1690
aF13.8
aF0.0497
aF0.0601
aF656.5
aF2.7600000000000002
aa(lp1710
F139.30779748296334
aF11.961375350481651
ag1693
aF13.8
aF0.0497
aF0.0601
aF1196.5
aF2.7600000000000002
aa(lp1711
F137.1775457034814
aF15.730652909080492
ag1690
aF13.8
aF0.0497
aF0.0601
aF71.5
aF5.5371
aa(lp1712
F140.7388400059031
aF13.57855582081091
ag1690
aF13.8
aF0.0497
aF0.0601
aF656.5
aF5.5371
aa(lp1713
F149.47473389431912
aF12.991741362460623
ag1693
aF13.8
aF0.0497
aF0.0601
aF1196.5
aF5.5371
aa(lp1714
F158.489226402046
aF18.0151027505937
ag1698
aF13.8
aF0.0497
aF0.0601
aF71.5
aF11.0739
aa(lp1715
F161.3004197886275
aF15.711827881659014
ag1698
aF13.8
aF0.0497
aF0.0601
aF656.5
aF11.0739
aa(lp1716
F169.79408175952386
aF15.062741797802659
ag1701
aF13.8
aF0.0497
aF0.0601
aF1196.5
aF11.0739
aa(lp1717
F109.74791025157234
aF17.198940880503145
aS'A4c'
p1718
aF13.8
aF0.0994
aF0.1202
aF71.5
aF0.2769
aa(lp1719
F113.30324464478512
aF14.447521949947589
ag1718
aF13.8
aF0.0994
aF0.1202
aF656.5
aF0.2769
aa(lp1720
F121.29622289482879
aF13.829724391771487
aS'A4c'
p1721
aF13.8
aF0.0994
aF0.1202
aF1196.5
aF0.2769
aa(lp1722
F113.7850234793965
aF17.679479980754028
ag1718
aF13.8
aF0.0994
aF0.1202
aF71.5
aF1.3841999999999999
aa(lp1723
F117.35630633060252
aF14.881881335054587
ag1718
aF13.8
aF0.0994
aF0.1202
aF656.5
aF1.3841999999999999
aa(lp1724
F125.34836923120176
aF14.244430209291338
ag1721
aF13.8
aF0.0994
aF0.1202
aF1196.5
aF1.3841999999999999
aa(lp1725
F118.81231700087706
aF18.274594998170944
aS'A4c'
p1726
aF13.8
aF0.0994
aF0.1202
aF71.5
aF2.7600000000000002
aa(lp1727
F122.3967205134858
aF15.422238151268072
ag1726
aF13.8
aF0.0994
aF0.1202
aF656.5
aF2.7600000000000002
aa(lp1728
F130.38514949041837
aF14.762445552775244
aS'A4c'
p1729
aF13.8
aF0.0994
aF0.1202
aF1196.5
aF2.7600000000000002
aa(lp1730
F128.9629759402009
aF19.475355105269884
ag1726
aF13.8
aF0.0994
aF0.1202
aF71.5
aF5.5371
aa(lp1731
F132.57214314055892
aF16.513140158525534
ag1726
aF13.8
aF0.0994
aF0.1202
aF656.5
aF5.5371
aa(lp1732
F140.55259520887782
aF15.80878456202924
ag1729
aF13.8
aF0.0994
aF0.1202
aF1196.5
aF5.5371
aa(lp1733
F150.50611151126074
aF21.863916983741746
aS'A4c'
p1734
aF13.8
aF0.0994
aF0.1202
aF71.5
aF11.0739
aa(lp1735
F153.17568373191716
aF18.698901958824823
ag1734
aF13.8
aF0.0994
aF0.1202
aF656.5
aF11.0739
aa(lp1736
F160.87645172406857
aF17.91565011288279
aS'A4c'
p1737
aF13.8
aF0.0994
aF0.1202
aF1196.5
aF11.0739
aa(lp1738
F103.08364037735848
aF21.504711320754716
ag1718
aF13.8
aF0.1491
aF0.1802
aF71.5
aF0.2769
aa(lp1739
F105.92975056092767
aF18.209132612421385
ag1718
aF13.8
aF0.1491
aF0.1802
aF656.5
aF0.2769
aa(lp1740
F112.91037441168763
aF17.517463219601677
ag1721
aF13.8
aF0.1491
aF0.1802
aF1196.5
aF0.2769
aa(lp1741
F107.03312073822042
aF21.99155494380864
ag1718
aF13.8
aF0.1491
aF0.1802
aF71.5
aF1.3841999999999999
aa(lp1742
F109.94097648417792
aF18.657761234139258
ag1718
aF13.8
aF0.1491
aF0.1802
aF656.5
aF1.3841999999999999
aa(lp1743
F116.94082706022098
aF17.946519707151943
ag1721
aF13.8
aF0.1491
aF0.1802
aF1196.5
aF1.3841999999999999
aa(lp1744
F111.96738398064285
aF22.596109105525514
ag1726
aF13.8
aF0.1491
aF0.1802
aF71.5
aF2.7600000000000002
aa(lp1745
F114.93826893274914
aF19.217399380020538
ag1726
aF13.8
aF0.1491
aF0.1802
aF656.5
aF2.7600000000000002
aa(lp1746
F121.9562080541474
aF18.48422953692196
ag1729
aF13.8
aF0.1491
aF0.1802
aF1196.5
aF2.7600000000000002
aa(lp1747
F121.93433251576734
aF23.81633521571842
ag1726
aF13.8
aF0.1491
aF0.1802
aF71.5
aF5.5371
aa(lp1748
F125.0289257341098
aF20.34762034786772
ag1726
aF13.8
aF0.1491
aF0.1802
aF656.5
aF5.5371
aa(lp1749
F132.08188635381546
aF19.570801665417914
ag1729
aF13.8
aF0.1491
aF0.1802
aF1196.5
aF5.5371
aa(lp1750
F143.17277722539734
aF26.25230804822673
ag1734
aF13.8
aF0.1491
aF0.1802
aF71.5
aF11.0739
aa(lp1751
F145.50525018293797
aF22.620524914810538
ag1734
aF13.8
aF0.1491
aF0.1802
aF656.5
aF11.0739
aa(lp1752
F152.3476305266861
aF21.770342671629393
ag1737
aF13.8
aF0.1491
aF0.1802
aF1196.5
aF11.0739
aa(lp1753
F97.83454836477986
aF26.85031308176101
aS'A4c'
p1754
aF13.8
aF0.1988
aF0.2403
aF71.5
aF0.2769
aa(lp1755
F99.75750433241613
aF22.652700369496856
ag1754
aF13.8
aF0.1988
aF0.2403
aF656.5
aF0.2769
aa(lp1756
F105.64258771628232
aF21.604408076432563
aS'A4c'
p1757
aF13.8
aF0.1988
aF0.2403
aF1196.5
aF0.2769
aa(lp1758
F101.67014265869332
aF27.289440219953946
ag1754
aF13.8
aF0.1988
aF0.2403
aF71.5
aF1.3841999999999999
aa(lp1759
F103.67991220395716
aF23.089083126926027
ag1754
aF13.8
aF0.1988
aF0.2403
aF656.5
aF1.3841999999999999
aa(lp1760
F109.60410704476789
aF22.02681407643877
ag1757
aF13.8
aF0.1988
aF0.2403
aF1196.5
aF1.3841999999999999
aa(lp1761
F106.4772926865086
aF27.841334600362288
aS'A4c'
p1762
aF13.8
aF0.1988
aF0.2403
aF71.5
aF2.7600000000000002
aa(lp1763
F108.58311774014624
aF23.638273512191503
ag1762
aF13.8
aF0.1988
aF0.2403
aF656.5
aF2.7600000000000002
aa(lp1764
F114.5470601255396
aF22.559934412336556
aS'A4c'
p1765
aF13.8
aF0.1988
aF0.2403
aF1196.5
aF2.7600000000000002
aa(lp1766
F116.19135698501056
aF28.956968478974673
ag1762
aF13.8
aF0.1988
aF0.2403
aF71.5
aF5.5371
aa(lp1767
F118.48803819490722
aF24.74863070741679
ag1762
aF13.8
aF0.1988
aF0.2403
aF656.5
aF5.5371
aa(lp1768
F124.52993823990518
aF23.638186720301835
ag1765
aF13.8
aF0.1988
aF0.2403
aF1196.5
aF5.5371
aa(lp1769
F136.44510111954907
aF30.542548837391372
aS'A4c'
p1770
aF13.8
aF0.1988
aF0.2403
aF71.5
aF11.0739
aa(lp1771
F138.56703922597146
aF26.862995770130354
ag1770
aF13.8
aF0.1988
aF0.2403
aF656.5
aF11.0739
aa(lp1772
F144.59148056497577
aF25.839204294192612
aS'A4c'
p1773
aF13.8
aF0.1988
aF0.2403
aF1196.5
aF11.0739
aa(lp1774
F90.00361270440251
aF39.620008867924525
aS'A4c'
p1775
aF13.8
aF0.2981
aF0.3605
aF71.5
aF0.2769
aa(lp1776
F90.07986018461739
aF33.88289423257337
ag1775
aF13.8
aF0.2981
aF0.3605
aF656.5
aF0.2769
aa(lp1777
F93.92207908839973
aF32.40582905904961
aS'A4c'
p1778
aF13.8
aF0.2981
aF0.3605
aF1196.5
aF0.2769
aa(lp1779
F93.62091955596797
aF39.92183060315496
ag1775
aF13.8
aF0.2981
aF0.3605
aF71.5
aF1.3841999999999999
aa(lp1780
F93.81063115518353
aF34.21338272759935
ag1775
aF13.8
aF0.2981
aF0.3605
aF656.5
aF1.3841999999999999
aa(lp1781
F97.71283334831388
aF32.73502054174542
ag1778
aF13.8
aF0.2981
aF0.3605
aF1196.5
aF1.3841999999999999
aa(lp1782
F98.17695999312451
aF40.322597169943535
aS'A4c'
p1783
aF13.8
aF0.2981
aF0.3605
aF71.5
aF2.7600000000000002
aa(lp1784
F98.50177402494275
aF34.646113800988424
ag1783
aF13.8
aF0.2981
aF0.3605
aF656.5
aF2.7600000000000002
aa(lp1785
F102.46720121304023
aF33.16606468377581
aS'A4c'
p1786
aF13.8
aF0.2981
aF0.3605
aF1196.5
aF2.7600000000000002
aa(lp1787
F107.38931939548597
aF41.13817912628419
ag1783
aF13.8
aF0.2981
aF0.3605
aF71.5
aF5.5371
aa(lp1788
F107.98533240347231
aF35.52527818143446
ag1783
aF13.8
aF0.2981
aF0.3605
aF656.5
aF5.5371
aa(lp1789
F112.07547618047384
aF34.041804550235256
ag1786
aF13.8
aF0.2981
aF0.3605
aF1196.5
aF5.5371
aa(lp1790
F126.2260311907931
aF42.05460873978966
aS'A4c'
p1791
aF13.8
aF0.2981
aF0.3605
aF71.5
aF11.0739
aa(lp1792
F127.22970806991962
aF36.86327324347364
ag1791
aF13.8
aF0.2981
aF0.3605
aF656.5
aF11.0739
aa(lp1793
F131.50307766058904
aF35.623051194095034
aS'A4c'
p1794
aF13.8
aF0.2981
aF0.3605
aF1196.5
aF11.0739
aa(lp1795
F83.46724999999999
aF53.451049999999995
ag1775
aF13.8
aF0.3975
aF0.4806
aF71.5
aF0.2769
aa(lp1796
F81.76431614583333
aF46.4666721875
ag1775
aF13.8
aF0.3975
aF0.4806
aF656.5
aF0.2769
aa(lp1797
F83.68653722222223
aF44.84330229166667
ag1778
aF13.8
aF0.3975
aF0.4806
aF1196.5
aF0.2769
aa(lp1798
F86.88092076502733
aF53.605345901639346
ag1775
aF13.8
aF0.3975
aF0.4806
aF71.5
aF1.3841999999999999
aa(lp1799
F85.30937163592895
aF46.64565249203097
ag1775
aF13.8
aF0.3975
aF0.4806
aF656.5
aF1.3841999999999999
aa(lp1800
F87.2999802808136
aF45.03285122115968
ag1778
aF13.8
aF0.3975
aF0.4806
aF1196.5
aF1.3841999999999999
aa(lp1801
F91.19880084092502
aF53.84479621583742
ag1783
aF13.8
aF0.3975
aF0.4806
aF71.5
aF2.7600000000000002
aa(lp1802
F89.7890723391147
aF46.9079247331231
ag1783
aF13.8
aF0.3975
aF0.4806
aF656.5
aF2.7600000000000002
aa(lp1803
F91.8532279181266
aF45.307815612395856
ag1786
aF13.8
aF0.3975
aF0.4806
aF1196.5
aF2.7600000000000002
aa(lp1804
F99.93424316748423
aF54.340405746320954
ag1783
aF13.8
aF0.3975
aF0.4806
aF71.5
aF5.5371
aa(lp1805
F98.85078958844312
aF47.44758393920813
ag1783
aF13.8
aF0.3975
aF0.4806
aF656.5
aF5.5371
aa(lp1806
F101.06046604716578
aF45.87298148261699
ag1786
aF13.8
aF0.3975
aF0.4806
aF1196.5
aF5.5371
aa(lp1807
F117.94482365145228
aF55.57125518672199
ag1791
aF13.8
aF0.3975
aF0.4806
aF71.5
aF11.0739
aa(lp1808
F117.32201768239972
aF47.78338345003458
ag1791
aF13.8
aF0.3975
aF0.4806
aF656.5
aF11.0739
aa(lp1809
F119.75124221127248
aF46.44883770746888
ag1794
aF13.8
aF0.3975
aF0.4806
aF1196.5
aF11.0739
aa(lp1810
F0.0
aF986.5274676330321
aS'A4c'
p1811
aF0.006
aF1.1925
aF1.4418
aF71.5
aF0.2769
aa(lp1812
F0.0
aF985.5854815637549
ag1811
aF0.006
aF1.1925
aF1.4418
aF656.5
aF0.2769
aa(lp1813
F0.0
aF1010.1487818942437
aS'A4c'
p1814
aF0.006
aF1.1925
aF1.4418
aF1196.5
aF0.2769
aa(lp1815
F0.0
aF977.9205636852054
ag1811
aF0.006
aF1.1925
aF1.4418
aF71.5
aF1.3841999999999999
aa(lp1816
F0.0
aF976.922208094811
ag1811
aF0.006
aF1.1925
aF1.4418
aF656.5
aF1.3841999999999999
aa(lp1817
F0.0
aF1001.4578417374873
ag1814
aF0.006
aF1.1925
aF1.4418
aF1196.5
aF1.3841999999999999
aa(lp1818
F0.0
aF967.5106901710486
aS'A4c'
p1819
aF0.006
aF1.1925
aF1.4418
aF71.5
aF2.7600000000000002
aa(lp1820
F0.0
aF966.2178203293131
ag1819
aF0.006
aF1.1925
aF1.4418
aF656.5
aF2.7600000000000002
aa(lp1821
F0.0
aF990.6581123139944
aS'A4c'
p1822
aF0.006
aF1.1925
aF1.4418
aF1196.5
aF2.7600000000000002
aa(lp1823
F0.0
aF946.5710084307622
ag1819
aF0.006
aF1.1925
aF1.4418
aF71.5
aF5.5371
aa(lp1824
F0.0
aF944.6259540951648
ag1819
aF0.006
aF1.1925
aF1.4418
aF656.5
aF5.5371
aa(lp1825
F0.0
aF968.8581254246576
ag1822
aF0.006
aF1.1925
aF1.4418
aF1196.5
aF5.5371
aa(lp1826
F0.03494669528737357
aF910.4723529812454
aS'A4c'
p1827
aF0.006
aF1.1925
aF1.4418
aF71.5
aF11.0739
aa(lp1828
F0.007188627747504539
aF903.0026171611498
ag1827
aF0.006
aF1.1925
aF1.4418
aF656.5
aF11.0739
aa(lp1829
F0.0
aF925.5643516487978
aS'A4c'
p1830
aF0.006
aF1.1925
aF1.4418
aF1196.5
aF11.0739
aa(lp1831
F0.0
aF911.2659569528113
ag1811
aF0.5
aF1.1925
aF1.4418
aF71.5
aF0.2769
aa(lp1832
F0.0
aF901.631139432731
ag1811
aF0.5
aF1.1925
aF1.4418
aF656.5
aF0.2769
aa(lp1833
F0.0
aF926.2060155919976
ag1814
aF0.5
aF1.1925
aF1.4418
aF1196.5
aF0.2769
aa(lp1834
F0.0
aF903.3395059222469
ag1811
aF0.5
aF1.1925
aF1.4418
aF71.5
aF1.3841999999999999
aa(lp1835
F0.0
aF893.1091612489271
ag1811
aF0.5
aF1.1925
aF1.4418
aF656.5
aF1.3841999999999999
aa(lp1836
F0.0
aF917.5155432007426
ag1814
aF0.5
aF1.1925
aF1.4418
aF1196.5
aF1.3841999999999999
aa(lp1837
F0.0
aF894.3994477142928
ag1819
aF0.5
aF1.1925
aF1.4418
aF71.5
aF2.7600000000000002
aa(lp1838
F0.0
aF882.7381887270357
ag1819
aF0.5
aF1.1925
aF1.4418
aF656.5
aF2.7600000000000002
aa(lp1839
F0.0
aF906.7395884265327
ag1822
aF0.5
aF1.1925
aF1.4418
aF1196.5
aF2.7600000000000002
aa(lp1840
F0.0
aF876.5871201133018
ag1819
aF0.5
aF1.1925
aF1.4418
aF71.5
aF5.5371
aa(lp1841
F0.0
aF861.8599071888992
ag1819
aF0.5
aF1.1925
aF1.4418
aF656.5
aF5.5371
aa(lp1842
F0.0
aF884.9935529225215
ag1822
aF0.5
aF1.1925
aF1.4418
aF1196.5
aF5.5371
aa(lp1843
F4.830409881943635
aF846.8850969733359
ag1827
aF0.5
aF1.1925
aF1.4418
aF71.5
aF11.0739
aa(lp1844
F0.993628101988405
aF822.5033157686416
ag1827
aF0.5
aF1.1925
aF1.4418
aF656.5
aF11.0739
aa(lp1845
F0.0
aF842.5563535395539
ag1830
aF0.5
aF1.1925
aF1.4418
aF1196.5
aF11.0739
aa(lp1846
F0.8684379836309526
aF879.1683143415179
aS'A4c'
p1847
aF0.75
aF1.1925
aF1.4418
aF71.5
aF0.2769
aa(lp1848
F0.17863999255952376
aF864.3670526227679
ag1847
aF0.75
aF1.1925
aF1.4418
aF656.5
aF0.2769
aa(lp1849
F0.0
aF888.2439280133929
aS'A4c'
p1850
aF0.75
aF1.1925
aF1.4418
aF1196.5
aF0.2769
aa(lp1851
F0.9933329344750197
aF871.6899315522946
ag1847
aF0.75
aF1.1925
aF1.4418
aF71.5
aF1.3841999999999999
aa(lp1852
F0.20433121462724438
aF855.9591104103647
ag1847
aF0.75
aF1.1925
aF1.4418
aF656.5
aF1.3841999999999999
aa(lp1853
F0.0
aF879.5712202956945
ag1850
aF0.75
aF1.1925
aF1.4418
aF1196.5
aF1.3841999999999999
aa(lp1854
F1.4006242168468652
aF863.3419745086052
aS'A4c'
p1855
aF0.75
aF1.1925
aF1.4418
aF71.5
aF2.7600000000000002
aa(lp1856
F0.28811210977909046
aF845.77970502655
ag1855
aF0.75
aF1.1925
aF1.4418
aF656.5
aF2.7600000000000002
aa(lp1857
F0.0
aF868.8559739076666
aS'A4c'
p1858
aF0.75
aF1.1925
aF1.4418
aF1196.5
aF2.7600000000000002
aa(lp1859
F2.2875562143096997
aF846.733918557314
ag1855
aF0.75
aF1.1925
aF1.4418
aF71.5
aF5.5371
aa(lp1860
F0.47055636994965316
aF825.3009289695487
ag1855
aF0.75
aF1.1925
aF1.4418
aF656.5
aF5.5371
aa(lp1861
F0.0
aF847.2424110515491
ag1858
aF0.75
aF1.1925
aF1.4418
aF1196.5
aF5.5371
aa(lp1862
F8.372549117331062
aF819.0235495832097
aS'A4c'
p1863
aF0.75
aF1.1925
aF1.4418
aF71.5
aF11.0739
aa(lp1864
F1.7222555210803194
aF787.1723187926051
ag1863
aF0.75
aF1.1925
aF1.4418
aF656.5
aF11.0739
aa(lp1865
F0.0
aF805.5722866957493
aS'A4c'
p1866
aF0.75
aF1.1925
aF1.4418
aF1196.5
aF11.0739
aa(lp1867
F2.3158346230158733
aF851.0641160218254
ag1847
aF1.0
aF1.1925
aF1.4418
aF71.5
aF0.2769
aa(lp1868
F0.47637331349206335
aF830.5849181051587
ag1847
aF1.0
aF1.1925
aF1.4418
aF656.5
aF0.2769
aa(lp1869
F0.0
aF853.2945534060847
ag1850
aF1.0
aF1.1925
aF1.4418
aF1196.5
aF0.2769
aa(lp1870
F2.648887825266719
aF844.1029411256396
ag1847
aF1.0
aF1.1925
aF1.4418
aF71.5
aF1.3841999999999999
aa(lp1871
F0.544883239005985
aF822.3193653710209
ag1847
aF1.0
aF1.1925
aF1.4418
aF656.5
aF1.3841999999999999
aa(lp1872
F0.0
aF844.6512956620262
ag1850
aF1.0
aF1.1925
aF1.4418
aF1196.5
aF1.3841999999999999
aa(lp1873
F3.73499791159164
aF836.2459302510678
ag1855
aF1.0
aF1.1925
aF1.4418
aF71.5
aF2.7600000000000002
aa(lp1874
F0.7682989594109078
aF812.3467502768461
ag1855
aF1.0
aF1.1925
aF1.4418
aF656.5
aF2.7600000000000002
aa(lp1875
F0.0
aF834.0292087808998
ag1858
aF1.0
aF1.1925
aF1.4418
aF1196.5
aF2.7600000000000002
aa(lp1876
F6.100149904825865
aF820.5898809833873
ag1855
aF1.0
aF1.1925
aF1.4418
aF71.5
aF5.5371
aa(lp1877
F1.2548169865324084
aF792.2930661162001
ag1855
aF1.0
aF1.1925
aF1.4418
aF656.5
aF5.5371
aa(lp1878
F0.0
aF812.6182314495018
ag1858
aF1.0
aF1.1925
aF1.4418
aF1196.5
aF5.5371
aa(lp1879
F12.658211950042812
aF794.0408275524023
ag1863
aF1.0
aF1.1925
aF1.4418
aF71.5
aF11.0739
aa(lp1880
F2.60382771273793
aF755.4463323995175
ag1863
aF1.0
aF1.1925
aF1.4418
aF656.5
aF11.0739
aa(lp1881
F0.0
aF771.9375727621626
ag1866
aF1.0
aF1.1925
aF1.4418
aF1196.5
aF11.0739
aa(lp1882
F3.7632312624007938
aF822.9599177021329
ag1847
aF1.25
aF1.1925
aF1.4418
aF71.5
aF0.2769
aa(lp1883
F0.7741066344246029
aF796.8027835875496
ag1847
aF1.25
aF1.1925
aF1.4418
aF656.5
aF0.2769
aa(lp1884
F0.0
aF818.3451787987765
ag1850
aF1.25
aF1.1925
aF1.4418
aF1196.5
aF0.2769
aa(lp1885
F4.304442716058419
aF816.5159506989846
ag1847
aF1.25
aF1.1925
aF1.4418
aF71.5
aF1.3841999999999999
aa(lp1886
F0.8854352633847256
aF788.6796203316773
ag1847
aF1.25
aF1.1925
aF1.4418
aF656.5
aF1.3841999999999999
aa(lp1887
F0.0
aF809.7313710283579
ag1850
aF1.25
aF1.1925
aF1.4418
aF1196.5
aF1.3841999999999999
aa(lp1888
F6.069371606336415
aF809.1498859935303
ag1855
aF1.25
aF1.1925
aF1.4418
aF71.5
aF2.7600000000000002
aa(lp1889
F1.248485809042725
aF778.9137955271424
ag1855
aF1.25
aF1.1925
aF1.4418
aF656.5
aF2.7600000000000002
aa(lp1890
F0.0
aF799.202443654133
ag1858
aF1.25
aF1.1925
aF1.4418
aF1196.5
aF2.7600000000000002
aa(lp1891
F9.91274359534203
aF794.4458434094605
ag1855
aF1.25
aF1.1925
aF1.4418
aF71.5
aF5.5371
aa(lp1892
F2.0390776031151634
aF759.2852032628513
ag1855
aF1.25
aF1.1925
aF1.4418
aF656.5
aF5.5371
aa(lp1893
F0.0
aF777.9940518474546
ag1858
aF1.25
aF1.1925
aF1.4418
aF1196.5
aF5.5371
aa(lp1894
F16.943874782754563
aF769.0581055215948
ag1863
aF1.25
aF1.1925
aF1.4418
aF71.5
aF11.0739
aa(lp1895
F3.48539990439554
aF723.7203460064298
ag1863
aF1.25
aF1.1925
aF1.4418
aF656.5
aF11.0739
aa(lp1896
F0.0
aF738.3028588285761
ag1866
aF1.25
aF1.1925
aF1.4418
aF1196.5
aF11.0739
aa(lp1897
F5.560424759114584
aF796.3807363541665
aS'A4c'
p1898
aF1.5
aF1.1925
aF1.4418
aF71.5
aF0.2769
aa(lp1899
F1.143794095052083
aF764.7980894791667
ag1898
aF1.5
aF1.1925
aF1.4418
aF656.5
aF0.2769
aa(lp1900
F0.0
aF785.0763354687501
aS'A4c'
p1901
aF1.5
aF1.1925
aF1.4418
aF1196.5
aF0.2769
aa(lp1902
F6.293427330871472
aF790.3717960227402
ag1898
aF1.5
aF1.1925
aF1.4418
aF71.5
aF1.3841999999999999
aa(lp1903
F1.294574664802482
aF756.8261151270777
ag1898
aF1.5
aF1.1925
aF1.4418
aF656.5
aF1.3841999999999999
aa(lp1904
F0.0
aF776.5162671408243
ag1901
aF1.5
aF1.1925
aF1.4418
aF1196.5
aF1.3841999999999999
aa(lp1905
F8.533664335070661
aF783.4253808665652
aS'A4c'
p1906
aF1.5
aF1.1925
aF1.4418
aF71.5
aF2.7600000000000002
aa(lp1907
F1.755397347947326
aF747.2880401457567
ag1906
aF1.5
aF1.1925
aF1.4418
aF656.5
aF2.7600000000000002
aa(lp1908
F0.0
aF766.1164756829596
aS'A4c'
p1909
aF1.5
aF1.1925
aF1.4418
aF1196.5
aF2.7600000000000002
aa(lp1910
F13.39738137911338
aF769.5373499090275
ag1906
aF1.5
aF1.1925
aF1.4418
aF71.5
aF5.5371
aa(lp1911
F2.755876821365482
aF728.1294244179404
ag1906
aF1.5
aF1.1925
aF1.4418
aF656.5
aF5.5371
aa(lp1912
F0.0
aF745.18477908637
ag1909
aF1.5
aF1.1925
aF1.4418
aF1196.5
aF5.5371
aa(lp1913
F20.90547104161264
aF745.1799763561116
aS'A4c'
p1914
aF1.5
aF1.1925
aF1.4418
aF71.5
aF11.0739
aa(lp1915
F4.373701161879754
aF693.8823720705826
ag1914
aF1.5
aF1.1925
aF1.4418
aF656.5
aF11.0739
aa(lp1916
F0.05915952465854087
aF706.5824735019737
aS'A4c'
p1917
aF1.5
aF1.1925
aF1.4418
aF1196.5
aF11.0739
aa(lp1918
F14.275075393880208
aF731.1308535416666
ag1898
aF2.25
aF1.1925
aF1.4418
aF71.5
aF0.2769
aa(lp1919
F2.9364208040364588
aF685.6696910416667
ag1898
aF2.25
aF1.1925
aF1.4418
aF656.5
aF0.2769
aa(lp1920
F0.0
aF701.2348526128472
ag1901
aF2.25
aF1.1925
aF1.4418
aF1196.5
aF0.2769
aa(lp1921
F15.427963553513493
aF725.6462716229081
ag1898
aF2.25
aF1.1925
aF1.4418
aF71.5
aF1.3841999999999999
aa(lp1922
F3.173572950926401
aF678.2348779433487
ag1898
aF2.25
aF1.1925
aF1.4418
aF656.5
aF1.3841999999999999
aa(lp1923
F0.0
aF693.0667525665035
ag1901
aF2.25
aF1.1925
aF1.4418
aF1196.5
aF1.3841999999999999
aa(lp1924
F17.160773344173382
aF719.2814872261063
ag1906
aF2.25
aF1.1925
aF1.4418
aF71.5
aF2.7600000000000002
aa(lp1925
F3.53001651275257
aF669.5791680006223
ag1906
aF2.25
aF1.1925
aF1.4418
aF656.5
aF2.7600000000000002
aa(lp1926
F0.0
aF683.3961447475765
ag1909
aF2.25
aF1.1925
aF1.4418
aF1196.5
aF2.7600000000000002
aa(lp1927
F20.73571361635168
aF706.5495381059203
ag1906
aF2.25
aF1.1925
aF1.4418
aF71.5
aF5.5371
aa(lp1928
F4.26539119195829
aF652.2568859633683
ag1906
aF2.25
aF1.1925
aF1.4418
aF656.5
aF5.5371
aa(lp1929
F0.0
aF663.9985757922603
ag1909
aF2.25
aF1.1925
aF1.4418
aF1196.5
aF5.5371
aa(lp1930
F29.711627366576984
aF684.0392210802429
ag1914
aF2.25
aF1.1925
aF1.4418
aF71.5
aF11.0739
aa(lp1931
F7.1025310596851225
aF622.3045686068249
ag1914
aF2.25
aF1.1925
aF1.4418
aF656.5
aF11.0739
aa(lp1932
F0.7986535828903011
aF629.6074392885187
ag1917
aF2.25
aF1.1925
aF1.4418
aF1196.5
aF11.0739
aa(lp1933
F21.60376152777778
aF656.6062053819445
aS'A4c'
p1934
aF3.45
aF1.1925
aF1.4418
aF71.5
aF0.2769
aa(lp1935
F6.147682361111114
aF602.3243668402778
ag1934
aF3.45
aF1.1925
aF1.4418
aF656.5
aF0.2769
aa(lp1936
F1.9945737905092598
aF612.6824354484953
aS'A4c'
p1937
aF3.45
aF1.1925
aF1.4418
aF1196.5
aF0.2769
aa(lp1938
F24.1132486446949
aF651.6506190867866
ag1934
aF3.45
aF1.1925
aF1.4418
aF71.5
aF1.3841999999999999
aa(lp1939
F6.750467958219491
aF595.8092237942092
ag1934
aF3.45
aF1.1925
aF1.4418
aF656.5
aF1.3841999999999999
aa(lp1940
F2.0998542010094114
aF605.3634089690536
ag1937
aF3.45
aF1.1925
aF1.4418
aF1196.5
aF1.3841999999999999
aa(lp1941
F26.154498383871566
aF645.882195313376
aS'A4c'
p1942
aF3.45
aF1.1925
aF1.4418
aF71.5
aF2.7600000000000002
aa(lp1943
F7.282073393361171
aF588.3524021042836
ag1942
aF3.45
aF1.1925
aF1.4418
aF656.5
aF2.7600000000000002
aa(lp1944
F2.242209031119417
aF596.8742490477141
aS'A4c'
p1945
aF3.45
aF1.1925
aF1.4418
aF1196.5
aF2.7600000000000002
aa(lp1946
F29.99807595656437
aF634.3383658782994
ag1942
aF3.45
aF1.1925
aF1.4418
aF71.5
aF5.5371
aa(lp1947
F8.299273145086334
aF573.4645665615509
ag1942
aF3.45
aF1.1925
aF1.4418
aF656.5
aF5.5371
aa(lp1948
F2.5325248281732597
aF579.8939853270223
ag1945
aF3.45
aF1.1925
aF1.4418
aF1196.5
aF5.5371
aa(lp1949
F40.03004591815785
aF613.9138522277692
aS'A4c'
p1950
aF3.45
aF1.1925
aF1.4418
aF71.5
aF11.0739
aa(lp1951
F15.210842939034407
aF548.1533461873992
ag1950
aF3.45
aF1.1925
aF1.4418
aF656.5
aF11.0739
aa(lp1952
F6.644892259657871
aF550.6230788279688
aS'A4c'
p1953
aF3.45
aF1.1925
aF1.4418
aF1196.5
aF11.0739
aa(lp1954
F63.60588395833334
aF273.84939260416667
ag1934
aF13.8
aF1.1925
aF1.4418
aF71.5
aF0.2769
aa(lp1955
F53.97345270833334
aF238.7957457291667
ag1934
aF13.8
aF1.1925
aF1.4418
aF656.5
aF0.2769
aa(lp1956
F47.86977097222222
aF236.45094062499993
ag1937
aF13.8
aF1.1925
aF1.4418
aF1196.5
aF0.2769
aa(lp1957
F66.17852860655738
aF271.40830075933513
ag1934
aF13.8
aF1.1925
aF1.4418
aF71.5
aF1.3841999999999999
aa(lp1958
F56.58051139344263
aF236.44724403119307
ag1934
aF13.8
aF1.1925
aF1.4418
aF656.5
aF1.3841999999999999
aa(lp1959
F50.39650082422586
aF234.08832665072862
ag1937
aF13.8
aF1.1925
aF1.4418
aF1196.5
aF1.3841999999999999
aa(lp1960
F69.47797301886243
aF268.5658906923032
ag1942
aF13.8
aF1.1925
aF1.4418
aF71.5
aF2.7600000000000002
aa(lp1961
F59.94037486714553
aF233.75981265270963
ag1942
aF13.8
aF1.1925
aF1.4418
aF656.5
aF2.7600000000000002
aa(lp1962
F53.813016746866
aF231.38112990597995
ag1945
aF13.8
aF1.1925
aF1.4418
aF1196.5
aF2.7600000000000002
aa(lp1963
F76.16448510715954
aF262.8773779687865
ag1942
aF13.8
aF1.1925
aF1.4418
aF71.5
aF5.5371
aa(lp1964
F66.75338415235927
aF228.39439485298408
ag1942
aF13.8
aF1.1925
aF1.4418
aF656.5
aF5.5371
aa(lp1965
F60.780595876158216
aF225.97524156252433
ag1945
aF13.8
aF1.1925
aF1.4418
aF1196.5
aF5.5371
aa(lp1966
F90.28614040888658
aF252.92707338779394
ag1950
aF13.8
aF1.1925
aF1.4418
aF71.5
aF11.0739
aa(lp1967
F81.09306533108575
aF219.112089336964
ag1950
aF13.8
aF1.1925
aF1.4418
aF656.5
aF11.0739
aa(lp1968
F74.90501550253573
aF216.67833842784694
ag1953
aF13.8
aF1.1925
aF1.4418
aF1196.5
aF11.0739
aa.